; Listing generated by Microsoft (R) Optimizing Compiler Version 19.38.33144.0 

include listing.inc

INCLUDELIB MSVCRTD
INCLUDELIB OLDNAMES

CONST	SEGMENT
$SG65818 DB	'C:\Program Files\Microsoft Visual Studio\2022\Community\'
	DB	'VC\Tools\MSVC\14.38.33130\include\xlocale', 00H
	ORG $+6
$SG58793 DB	' is attacking with damage: ', 00H
	ORG $+4
$SG58794 DB	' has no more bullets. shit... bad day...', 00H
	ORG $+7
$SG58805 DB	' was attacked, current health: ', 00H
$SG67647 DB	'invalid argument', 00H
	ORG $+3
$SG67648 DB	'%s', 00H
	ORG $+1
$SG67649 DB	'C:\Program Files\Microsoft Visual Studio\2022\Community\'
	DB	'VC\Tools\MSVC\14.38.33130\include\xmemory', 00H
	ORG $+14
$SG67650 DB	'C', 00H, ':', 00H, '\', 00H, 'P', 00H, 'r', 00H, 'o', 00H
	DB	'g', 00H, 'r', 00H, 'a', 00H, 'm', 00H, ' ', 00H, 'F', 00H, 'i'
	DB	00H, 'l', 00H, 'e', 00H, 's', 00H, '\', 00H, 'M', 00H, 'i', 00H
	DB	'c', 00H, 'r', 00H, 'o', 00H, 's', 00H, 'o', 00H, 'f', 00H, 't'
	DB	00H, ' ', 00H, 'V', 00H, 'i', 00H, 's', 00H, 'u', 00H, 'a', 00H
	DB	'l', 00H, ' ', 00H, 'S', 00H, 't', 00H, 'u', 00H, 'd', 00H, 'i'
	DB	00H, 'o', 00H, '\', 00H, '2', 00H, '0', 00H, '2', 00H, '2', 00H
	DB	'\', 00H, 'C', 00H, 'o', 00H, 'm', 00H, 'm', 00H, 'u', 00H, 'n'
	DB	00H, 'i', 00H, 't', 00H, 'y', 00H, '\', 00H, 'V', 00H, 'C', 00H
	DB	'\', 00H, 'T', 00H, 'o', 00H, 'o', 00H, 'l', 00H, 's', 00H, '\'
	DB	00H, 'M', 00H, 'S', 00H, 'V', 00H, 'C', 00H, '\', 00H, '1', 00H
	DB	'4', 00H, '.', 00H, '3', 00H, '8', 00H, '.', 00H, '3', 00H, '3'
	DB	00H, '1', 00H, '3', 00H, '0', 00H, '\', 00H, 'i', 00H, 'n', 00H
	DB	'c', 00H, 'l', 00H, 'u', 00H, 'd', 00H, 'e', 00H, '\', 00H, 'x'
	DB	00H, 'm', 00H, 'e', 00H, 'm', 00H, 'o', 00H, 'r', 00H, 'y', 00H
	DB	00H, 00H
$SG67651 DB	00H, 00H
	ORG $+2
$SG67652 DB	'"', 00H, 'i', 00H, 'n', 00H, 'v', 00H, 'a', 00H, 'l', 00H
	DB	'i', 00H, 'd', 00H, ' ', 00H, 'a', 00H, 'r', 00H, 'g', 00H, 'u'
	DB	00H, 'm', 00H, 'e', 00H, 'n', 00H, 't', 00H, '"', 00H, 00H, 00H
CONST	ENDS
PUBLIC	?__empty_global_delete@@YAXPEAX@Z		; __empty_global_delete
PUBLIC	?__empty_global_delete@@YAXPEAX_K@Z		; __empty_global_delete
PUBLIC	?__empty_global_delete@@YAXPEAXW4align_val_t@std@@@Z ; __empty_global_delete
PUBLIC	?__empty_global_delete@@YAXPEAX_KW4align_val_t@std@@@Z ; __empty_global_delete
PUBLIC	??0Character@@QEAA@PEBD@Z			; Character::Character
PUBLIC	??1Character@@QEAA@XZ				; Character::~Character
PUBLIC	?name@Character@@QEBAPEBDXZ			; Character::name
PUBLIC	?dead@Character@@QEBA_NXZ			; Character::dead
PUBLIC	?attack@Character@@QEAA_NAEAV1@@Z		; Character::attack
PUBLIC	?takeDamage@Character@@QEAAXH@Z			; Character::takeDamage
PUBLIC	?randomInt@LifeExe@@YAHHH@Z			; LifeExe::randomInt
PUBLIC	?length@?$_Narrow_char_traits@DH@std@@SA_KQEBD@Z ; std::_Narrow_char_traits<char,int>::length
PUBLIC	?eq_int_type@?$_Narrow_char_traits@DH@std@@SA_NHH@Z ; std::_Narrow_char_traits<char,int>::eq_int_type
PUBLIC	?eof@?$_Narrow_char_traits@DH@std@@SAHXZ	; std::_Narrow_char_traits<char,int>::eof
PUBLIC	??Rrandom_device@std@@QEAAIXZ			; std::random_device::operator()
PUBLIC	??0?$mersenne_twister@I$0CA@$0CHA@$0BIN@$0BP@$0JJAILANP@$0L@$06$0JNCMFGIA@$0P@$0OPMGAAAA@$0BC@@std@@QEAA@III@Z ; std::mersenne_twister<unsigned int,32,624,397,31,2567483615,11,7,2636928640,15,4022730752,18>::mersenne_twister<unsigned int,32,624,397,31,2567483615,11,7,2636928640,15,4022730752,18>
PUBLIC	?seed@?$mersenne_twister@I$0CA@$0CHA@$0BIN@$0BP@$0JJAILANP@$0L@$06$0JNCMFGIA@$0P@$0OPMGAAAA@$0BC@@std@@QEAAXII@Z ; std::mersenne_twister<unsigned int,32,624,397,31,2567483615,11,7,2636928640,15,4022730752,18>::seed
PUBLIC	??R?$mersenne_twister@I$0CA@$0CHA@$0BIN@$0BP@$0JJAILANP@$0L@$06$0JNCMFGIA@$0P@$0OPMGAAAA@$0BC@@std@@QEAAIXZ ; std::mersenne_twister<unsigned int,32,624,397,31,2567483615,11,7,2636928640,15,4022730752,18>::operator()
PUBLIC	?_Refill_lower@?$mersenne_twister@I$0CA@$0CHA@$0BIN@$0BP@$0JJAILANP@$0L@$06$0JNCMFGIA@$0P@$0OPMGAAAA@$0BC@@std@@IEAAXXZ ; std::mersenne_twister<unsigned int,32,624,397,31,2567483615,11,7,2636928640,15,4022730752,18>::_Refill_lower
PUBLIC	?_Refill_upper@?$mersenne_twister@I$0CA@$0CHA@$0BIN@$0BP@$0JJAILANP@$0L@$06$0JNCMFGIA@$0P@$0OPMGAAAA@$0BC@@std@@IEAAXXZ ; std::mersenne_twister<unsigned int,32,624,397,31,2567483615,11,7,2636928640,15,4022730752,18>::_Refill_upper
PUBLIC	??0?$mersenne_twister_engine@I$0CA@$0CHA@$0BIN@$0BP@$0JJAILANP@$0L@$0PPPPPPPP@$06$0JNCMFGIA@$0P@$0OPMGAAAA@$0BC@$0GMAHIJGF@@std@@QEAA@I@Z ; std::mersenne_twister_engine<unsigned int,32,624,397,31,2567483615,11,4294967295,7,2636928640,15,4022730752,18,1812433253>::mersenne_twister_engine<unsigned int,32,624,397,31,2567483615,11,4294967295,7,2636928640,15,4022730752,18,1812433253>
PUBLIC	??0?$uniform_int@H@std@@QEAA@HH@Z		; std::uniform_int<int>::uniform_int<int>
PUBLIC	?_Adjust@?$uniform_int@H@std@@CAII@Z		; std::uniform_int<int>::_Adjust
PUBLIC	??0param_type@?$uniform_int@H@std@@QEAA@HH@Z	; std::uniform_int<int>::param_type::param_type
PUBLIC	?_Init@param_type@?$uniform_int@H@std@@QEAAXHH@Z ; std::uniform_int<int>::param_type::_Init
PUBLIC	??0?$uniform_int_distribution@H@std@@QEAA@HH@Z	; std::uniform_int_distribution<int>::uniform_int_distribution<int>
PUBLIC	??$?RV?$mersenne_twister_engine@I$0CA@$0CHA@$0BIN@$0BP@$0JJAILANP@$0L@$0PPPPPPPP@$06$0JNCMFGIA@$0P@$0OPMGAAAA@$0BC@$0GMAHIJGF@@std@@@?$uniform_int@H@std@@QEAAHAEAV?$mersenne_twister_engine@I$0CA@$0CHA@$0BIN@$0BP@$0JJAILANP@$0L@$0PPPPPPPP@$06$0JNCMFGIA@$0P@$0OPMGAAAA@$0BC@$0GMAHIJGF@@1@@Z ; std::uniform_int<int>::operator()<std::mersenne_twister_engine<unsigned int,32,624,397,31,2567483615,11,4294967295,7,2636928640,15,4022730752,18,1812433253> >
PUBLIC	??$?6U?$char_traits@D@std@@@std@@YAAEAV?$basic_ostream@DU?$char_traits@D@std@@@0@AEAV10@PEBD@Z ; std::operator<<<std::char_traits<char> >
PUBLIC	??$endl@DU?$char_traits@D@std@@@std@@YAAEAV?$basic_ostream@DU?$char_traits@D@std@@@0@AEAV10@@Z ; std::endl<char,std::char_traits<char> >
PUBLIC	??0_Sentry_base@?$basic_ostream@DU?$char_traits@D@std@@@std@@QEAA@AEAV12@@Z ; std::basic_ostream<char,std::char_traits<char> >::_Sentry_base::_Sentry_base
PUBLIC	??1_Sentry_base@?$basic_ostream@DU?$char_traits@D@std@@@std@@QEAA@XZ ; std::basic_ostream<char,std::char_traits<char> >::_Sentry_base::~_Sentry_base
PUBLIC	??0sentry@?$basic_ostream@DU?$char_traits@D@std@@@std@@QEAA@AEAV12@@Z ; std::basic_ostream<char,std::char_traits<char> >::sentry::sentry
PUBLIC	??1sentry@?$basic_ostream@DU?$char_traits@D@std@@@std@@QEAA@XZ ; std::basic_ostream<char,std::char_traits<char> >::sentry::~sentry
PUBLIC	??Bsentry@?$basic_ostream@DU?$char_traits@D@std@@@std@@QEBA_NXZ ; std::basic_ostream<char,std::char_traits<char> >::sentry::operator bool
PUBLIC	??$_Eval@V?$mersenne_twister_engine@I$0CA@$0CHA@$0BIN@$0BP@$0JJAILANP@$0L@$0PPPPPPPP@$06$0JNCMFGIA@$0P@$0OPMGAAAA@$0BC@$0GMAHIJGF@@std@@@?$uniform_int@H@std@@AEBAHAEAV?$mersenne_twister_engine@I$0CA@$0CHA@$0BIN@$0BP@$0JJAILANP@$0L@$0PPPPPPPP@$06$0JNCMFGIA@$0P@$0OPMGAAAA@$0BC@$0GMAHIJGF@@1@HH@Z ; std::uniform_int<int>::_Eval<std::mersenne_twister_engine<unsigned int,32,624,397,31,2567483615,11,4294967295,7,2636928640,15,4022730752,18,1812433253> >
PUBLIC	??0?$_Rng_from_urng_v2@IV?$mersenne_twister_engine@I$0CA@$0CHA@$0BIN@$0BP@$0JJAILANP@$0L@$0PPPPPPPP@$06$0JNCMFGIA@$0P@$0OPMGAAAA@$0BC@$0GMAHIJGF@@std@@@std@@QEAA@AEAV?$mersenne_twister_engine@I$0CA@$0CHA@$0BIN@$0BP@$0JJAILANP@$0L@$0PPPPPPPP@$06$0JNCMFGIA@$0P@$0OPMGAAAA@$0BC@$0GMAHIJGF@@1@@Z ; std::_Rng_from_urng_v2<unsigned int,std::mersenne_twister_engine<unsigned int,32,624,397,31,2567483615,11,4294967295,7,2636928640,15,4022730752,18,1812433253> >::_Rng_from_urng_v2<unsigned int,std::mersenne_twister_engine<unsigned int,32,624,397,31,2567483615,11,4294967295,7,2636928640,15,4022730752,18,1812433253> >
PUBLIC	??R?$_Rng_from_urng_v2@IV?$mersenne_twister_engine@I$0CA@$0CHA@$0BIN@$0BP@$0JJAILANP@$0L@$0PPPPPPPP@$06$0JNCMFGIA@$0P@$0OPMGAAAA@$0BC@$0GMAHIJGF@@std@@@std@@QEAAII@Z ; std::_Rng_from_urng_v2<unsigned int,std::mersenne_twister_engine<unsigned int,32,624,397,31,2567483615,11,4294967295,7,2636928640,15,4022730752,18,1812433253> >::operator()
PUBLIC	?_Get_all_bits@?$_Rng_from_urng_v2@IV?$mersenne_twister_engine@I$0CA@$0CHA@$0BIN@$0BP@$0JJAILANP@$0L@$0PPPPPPPP@$06$0JNCMFGIA@$0P@$0OPMGAAAA@$0BC@$0GMAHIJGF@@std@@@std@@QEAAIXZ ; std::_Rng_from_urng_v2<unsigned int,std::mersenne_twister_engine<unsigned int,32,624,397,31,2567483615,11,4294967295,7,2636928640,15,4022730752,18,1812433253> >::_Get_all_bits
PUBLIC	?_Get_bits@?$_Rng_from_urng_v2@IV?$mersenne_twister_engine@I$0CA@$0CHA@$0BIN@$0BP@$0JJAILANP@$0L@$0PPPPPPPP@$06$0JNCMFGIA@$0P@$0OPMGAAAA@$0BC@$0GMAHIJGF@@std@@@std@@AEAAIXZ ; std::_Rng_from_urng_v2<unsigned int,std::mersenne_twister_engine<unsigned int,32,624,397,31,2567483615,11,4294967295,7,2636928640,15,4022730752,18,1812433253> >::_Get_bits
PUBLIC	?_Get_random_product@?$_Rng_from_urng_v2@IV?$mersenne_twister_engine@I$0CA@$0CHA@$0BIN@$0BP@$0JJAILANP@$0L@$0PPPPPPPP@$06$0JNCMFGIA@$0P@$0OPMGAAAA@$0BC@$0GMAHIJGF@@std@@@std@@AEAA_KII@Z ; std::_Rng_from_urng_v2<unsigned int,std::mersenne_twister_engine<unsigned int,32,624,397,31,2567483615,11,4294967295,7,2636928640,15,4022730752,18,1812433253> >::_Get_random_product
PUBLIC	??_C@_02DKCKIIND@?$CFs@				; `string'
PUBLIC	??_C@_11LOCGONAA@@				; `string'
PUBLIC	??_C@_0GB@HCBOKIBA@C?3?2Program?5Files?2Microsoft?5Visu@ ; `string'
PUBLIC	??_C@_1MC@DOHEDGIC@?$AAC?$AA?3?$AA?2?$AAP?$AAr?$AAo?$AAg?$AAr?$AAa?$AAm?$AA?5?$AAF?$AAi?$AAl?$AAe@ ; `string'
PUBLIC	??_C@_0CO@CCCJIBKO@invalid?5min?5and?5max?5arguments?5f@ ; `string'
PUBLIC	??_C@_1GA@FJHEAOJP@?$AA?$CC?$AAi?$AAn?$AAv?$AAa?$AAl?$AAi?$AAd?$AA?5?$AAm?$AAi?$AAn?$AA?5?$AAa?$AAn@ ; `string'
EXTRN	??2@YAPEAX_K@Z:PROC				; operator new
EXTRN	??3@YAXPEAX_K@Z:PROC				; operator delete
EXTRN	??0Weapon@@QEAA@H@Z:PROC			; Weapon::Weapon
EXTRN	?fire@Weapon@@QEAA_NXZ:PROC			; Weapon::fire
EXTRN	?damage@Weapon@@QEBAHXZ:PROC			; Weapon::damage
EXTRN	__imp__invalid_parameter:PROC
EXTRN	__imp__CrtDbgReport:PROC
EXTRN	?uncaught_exceptions@std@@YAHXZ:PROC		; std::uncaught_exceptions
EXTRN	__imp_?good@ios_base@std@@QEBA_NXZ:PROC
EXTRN	__imp_?flags@ios_base@std@@QEBAHXZ:PROC
EXTRN	__imp_?width@ios_base@std@@QEBA_JXZ:PROC
EXTRN	__imp_?width@ios_base@std@@QEAA_J_J@Z:PROC
EXTRN	__imp_?sputc@?$basic_streambuf@DU?$char_traits@D@std@@@std@@QEAAHD@Z:PROC
EXTRN	__imp_?sputn@?$basic_streambuf@DU?$char_traits@D@std@@@std@@QEAA_JPEBD_J@Z:PROC
EXTRN	__imp_?setstate@?$basic_ios@DU?$char_traits@D@std@@@std@@QEAAXH_N@Z:PROC
EXTRN	__imp_?tie@?$basic_ios@DU?$char_traits@D@std@@@std@@QEBAPEAV?$basic_ostream@DU?$char_traits@D@std@@@2@XZ:PROC
EXTRN	__imp_?rdbuf@?$basic_ios@DU?$char_traits@D@std@@@std@@QEBAPEAV?$basic_streambuf@DU?$char_traits@D@std@@@2@XZ:PROC
EXTRN	__imp_?fill@?$basic_ios@DU?$char_traits@D@std@@@std@@QEBADXZ:PROC
EXTRN	__imp_?widen@?$basic_ios@DU?$char_traits@D@std@@@std@@QEBADD@Z:PROC
EXTRN	?_Random_device@std@@YAIXZ:PROC			; std::_Random_device
EXTRN	__imp_?_Osfx@?$basic_ostream@DU?$char_traits@D@std@@@std@@QEAAXXZ:PROC
EXTRN	__imp_??6?$basic_ostream@DU?$char_traits@D@std@@@std@@QEAAAEAV01@P6AAEAV01@AEAV01@@Z@Z:PROC
EXTRN	__imp_??6?$basic_ostream@DU?$char_traits@D@std@@@std@@QEAAAEAV01@H@Z:PROC
EXTRN	__imp_?put@?$basic_ostream@DU?$char_traits@D@std@@@std@@QEAAAEAV12@D@Z:PROC
EXTRN	__imp_?flush@?$basic_ostream@DU?$char_traits@D@std@@@std@@QEAAAEAV12@XZ:PROC
EXTRN	_RTC_CheckStackVars:PROC
EXTRN	_RTC_InitBase:PROC
EXTRN	_RTC_Shutdown:PROC
EXTRN	__CxxFrameHandler4:PROC
EXTRN	__GSHandlerCheck:PROC
EXTRN	__chkstk:PROC
EXTRN	__security_check_cookie:PROC
EXTRN	__imp_?cout@std@@3V?$basic_ostream@DU?$char_traits@D@std@@@1@A:BYTE
EXTRN	__security_cookie:QWORD
;	COMDAT pdata
pdata	SEGMENT
$pdata$?__empty_global_delete@@YAXPEAX@Z DD imagerel $LN3
	DD	imagerel $LN3+8
	DD	imagerel $unwind$?__empty_global_delete@@YAXPEAX@Z
pdata	ENDS
;	COMDAT pdata
pdata	SEGMENT
$pdata$?__empty_global_delete@@YAXPEAX_K@Z DD imagerel $LN3
	DD	imagerel $LN3+13
	DD	imagerel $unwind$?__empty_global_delete@@YAXPEAX_K@Z
pdata	ENDS
;	COMDAT pdata
pdata	SEGMENT
$pdata$?__empty_global_delete@@YAXPEAXW4align_val_t@std@@@Z DD imagerel $LN3
	DD	imagerel $LN3+13
	DD	imagerel $unwind$?__empty_global_delete@@YAXPEAXW4align_val_t@std@@@Z
pdata	ENDS
;	COMDAT pdata
pdata	SEGMENT
$pdata$?__empty_global_delete@@YAXPEAX_KW4align_val_t@std@@@Z DD imagerel $LN3
	DD	imagerel $LN3+18
	DD	imagerel $unwind$?__empty_global_delete@@YAXPEAX_KW4align_val_t@std@@@Z
pdata	ENDS
pdata	SEGMENT
$pdata$??0Character@@QEAA@PEBD@Z DD imagerel $LN6
	DD	imagerel $LN6+147
	DD	imagerel $unwind$??0Character@@QEAA@PEBD@Z
pdata	ENDS
pdata	SEGMENT
$pdata$?dtor$0@?0???0Character@@QEAA@PEBD@Z@4HA DD imagerel ?dtor$0@?0???0Character@@QEAA@PEBD@Z@4HA
	DD	imagerel ?dtor$0@?0???0Character@@QEAA@PEBD@Z@4HA+40
	DD	imagerel $unwind$?dtor$0@?0???0Character@@QEAA@PEBD@Z@4HA
pdata	ENDS
pdata	SEGMENT
$pdata$??1Character@@QEAA@XZ DD imagerel $LN3
	DD	imagerel $LN3+58
	DD	imagerel $unwind$??1Character@@QEAA@XZ
$pdata$?name@Character@@QEBAPEBDXZ DD imagerel $LN3
	DD	imagerel $LN3+16
	DD	imagerel $unwind$?name@Character@@QEBAPEBDXZ
$pdata$?dead@Character@@QEBA_NXZ DD imagerel $LN5
	DD	imagerel $LN5+47
	DD	imagerel $unwind$?dead@Character@@QEBA_NXZ
$pdata$?attack@Character@@QEAA_NAEAV1@@Z DD imagerel $LN5
	DD	imagerel $LN5+223
	DD	imagerel $unwind$?attack@Character@@QEAA_NAEAV1@@Z
$pdata$?takeDamage@Character@@QEAAXH@Z DD imagerel $LN4
	DD	imagerel $LN4+155
	DD	imagerel $unwind$?takeDamage@Character@@QEAAXH@Z
pdata	ENDS
;	COMDAT pdata
pdata	SEGMENT
$pdata$?randomInt@LifeExe@@YAHHH@Z DD imagerel $LN3
	DD	imagerel $LN3+178
	DD	imagerel $unwind$?randomInt@LifeExe@@YAHHH@Z
pdata	ENDS
;	COMDAT pdata
pdata	SEGMENT
$pdata$?length@?$_Narrow_char_traits@DH@std@@SA_KQEBD@Z DD imagerel $LN4
	DD	imagerel $LN4+59
	DD	imagerel $unwind$?length@?$_Narrow_char_traits@DH@std@@SA_KQEBD@Z
pdata	ENDS
;	COMDAT pdata
pdata	SEGMENT
$pdata$?eq_int_type@?$_Narrow_char_traits@DH@std@@SA_NHH@Z DD imagerel $LN5
	DD	imagerel $LN5+49
	DD	imagerel $unwind$?eq_int_type@?$_Narrow_char_traits@DH@std@@SA_NHH@Z
pdata	ENDS
;	COMDAT pdata
pdata	SEGMENT
$pdata$?eof@?$_Narrow_char_traits@DH@std@@SAHXZ DD imagerel $LN3
	DD	imagerel $LN3+9
	DD	imagerel $unwind$?eof@?$_Narrow_char_traits@DH@std@@SAHXZ
pdata	ENDS
;	COMDAT pdata
pdata	SEGMENT
$pdata$??Rrandom_device@std@@QEAAIXZ DD imagerel $LN3
	DD	imagerel $LN3+21
	DD	imagerel $unwind$??Rrandom_device@std@@QEAAIXZ
pdata	ENDS
;	COMDAT pdata
pdata	SEGMENT
$pdata$??0?$mersenne_twister@I$0CA@$0CHA@$0BIN@$0BP@$0JJAILANP@$0L@$06$0JNCMFGIA@$0P@$0OPMGAAAA@$0BC@@std@@QEAA@III@Z DD imagerel $LN3
	DD	imagerel $LN3+69
	DD	imagerel $unwind$??0?$mersenne_twister@I$0CA@$0CHA@$0BIN@$0BP@$0JJAILANP@$0L@$06$0JNCMFGIA@$0P@$0OPMGAAAA@$0BC@@std@@QEAA@III@Z
pdata	ENDS
;	COMDAT pdata
pdata	SEGMENT
$pdata$?seed@?$mersenne_twister@I$0CA@$0CHA@$0BIN@$0BP@$0JJAILANP@$0L@$06$0JNCMFGIA@$0P@$0OPMGAAAA@$0BC@@std@@QEAAXII@Z DD imagerel $LN6
	DD	imagerel $LN6+175
	DD	imagerel $unwind$?seed@?$mersenne_twister@I$0CA@$0CHA@$0BIN@$0BP@$0JJAILANP@$0L@$06$0JNCMFGIA@$0P@$0OPMGAAAA@$0BC@@std@@QEAAXII@Z
pdata	ENDS
;	COMDAT pdata
pdata	SEGMENT
$pdata$??R?$mersenne_twister@I$0CA@$0CHA@$0BIN@$0BP@$0JJAILANP@$0L@$06$0JNCMFGIA@$0P@$0OPMGAAAA@$0BC@@std@@QEAAIXZ DD imagerel $LN6
	DD	imagerel $LN6+209
	DD	imagerel $unwind$??R?$mersenne_twister@I$0CA@$0CHA@$0BIN@$0BP@$0JJAILANP@$0L@$06$0JNCMFGIA@$0P@$0OPMGAAAA@$0BC@@std@@QEAAIXZ
pdata	ENDS
;	COMDAT pdata
pdata	SEGMENT
$pdata$?_Refill_lower@?$mersenne_twister@I$0CA@$0CHA@$0BIN@$0BP@$0JJAILANP@$0L@$06$0JNCMFGIA@$0P@$0OPMGAAAA@$0BC@@std@@IEAAXXZ DD imagerel $LN15
	DD	imagerel $LN15+506
	DD	imagerel $unwind$?_Refill_lower@?$mersenne_twister@I$0CA@$0CHA@$0BIN@$0BP@$0JJAILANP@$0L@$06$0JNCMFGIA@$0P@$0OPMGAAAA@$0BC@@std@@IEAAXXZ
pdata	ENDS
;	COMDAT pdata
pdata	SEGMENT
$pdata$?_Refill_upper@?$mersenne_twister@I$0CA@$0CHA@$0BIN@$0BP@$0JJAILANP@$0L@$06$0JNCMFGIA@$0P@$0OPMGAAAA@$0BC@@std@@IEAAXXZ DD imagerel $LN8
	DD	imagerel $LN8+167
	DD	imagerel $unwind$?_Refill_upper@?$mersenne_twister@I$0CA@$0CHA@$0BIN@$0BP@$0JJAILANP@$0L@$06$0JNCMFGIA@$0P@$0OPMGAAAA@$0BC@@std@@IEAAXXZ
pdata	ENDS
;	COMDAT pdata
pdata	SEGMENT
$pdata$??0?$mersenne_twister_engine@I$0CA@$0CHA@$0BIN@$0BP@$0JJAILANP@$0L@$0PPPPPPPP@$06$0JNCMFGIA@$0P@$0OPMGAAAA@$0BC@$0GMAHIJGF@@std@@QEAA@I@Z DD imagerel $LN3
	DD	imagerel $LN3+51
	DD	imagerel $unwind$??0?$mersenne_twister_engine@I$0CA@$0CHA@$0BIN@$0BP@$0JJAILANP@$0L@$0PPPPPPPP@$06$0JNCMFGIA@$0P@$0OPMGAAAA@$0BC@$0GMAHIJGF@@std@@QEAA@I@Z
pdata	ENDS
;	COMDAT pdata
pdata	SEGMENT
$pdata$??0?$uniform_int@H@std@@QEAA@HH@Z DD imagerel $LN3
	DD	imagerel $LN3+59
	DD	imagerel $unwind$??0?$uniform_int@H@std@@QEAA@HH@Z
pdata	ENDS
;	COMDAT pdata
pdata	SEGMENT
$pdata$?_Adjust@?$uniform_int@H@std@@CAII@Z DD imagerel $LN5
	DD	imagerel $LN5+54
	DD	imagerel $unwind$?_Adjust@?$uniform_int@H@std@@CAII@Z
pdata	ENDS
;	COMDAT pdata
pdata	SEGMENT
$pdata$??0param_type@?$uniform_int@H@std@@QEAA@HH@Z DD imagerel $LN3
	DD	imagerel $LN3+49
	DD	imagerel $unwind$??0param_type@?$uniform_int@H@std@@QEAA@HH@Z
pdata	ENDS
;	COMDAT pdata
pdata	SEGMENT
$pdata$?_Init@param_type@?$uniform_int@H@std@@QEAAXHH@Z DD imagerel $LN12
	DD	imagerel $LN12+173
	DD	imagerel $unwind$?_Init@param_type@?$uniform_int@H@std@@QEAAXHH@Z
pdata	ENDS
;	COMDAT pdata
pdata	SEGMENT
$pdata$??0?$uniform_int_distribution@H@std@@QEAA@HH@Z DD imagerel $LN3
	DD	imagerel $LN3+49
	DD	imagerel $unwind$??0?$uniform_int_distribution@H@std@@QEAA@HH@Z
pdata	ENDS
;	COMDAT pdata
pdata	SEGMENT
$pdata$??$?RV?$mersenne_twister_engine@I$0CA@$0CHA@$0BIN@$0BP@$0JJAILANP@$0L@$0PPPPPPPP@$06$0JNCMFGIA@$0P@$0OPMGAAAA@$0BC@$0GMAHIJGF@@std@@@?$uniform_int@H@std@@QEAAHAEAV?$mersenne_twister_engine@I$0CA@$0CHA@$0BIN@$0BP@$0JJAILANP@$0L@$0PPPPPPPP@$06$0JNCMFGIA@$0P@$0OPMGAAAA@$0BC@$0GMAHIJGF@@1@@Z DD imagerel $LN3
	DD	imagerel $LN3+53
	DD	imagerel $unwind$??$?RV?$mersenne_twister_engine@I$0CA@$0CHA@$0BIN@$0BP@$0JJAILANP@$0L@$0PPPPPPPP@$06$0JNCMFGIA@$0P@$0OPMGAAAA@$0BC@$0GMAHIJGF@@std@@@?$uniform_int@H@std@@QEAAHAEAV?$mersenne_twister_engine@I$0CA@$0CHA@$0BIN@$0BP@$0JJAILANP@$0L@$0PPPPPPPP@$06$0JNCMFGIA@$0P@$0OPMGAAAA@$0BC@$0GMAHIJGF@@1@@Z
pdata	ENDS
;	COMDAT pdata
pdata	SEGMENT
$pdata$??$?6U?$char_traits@D@std@@@std@@YAAEAV?$basic_ostream@DU?$char_traits@D@std@@@0@AEAV10@PEBD@Z DD imagerel $LN25
	DD	imagerel $LN25+1055
	DD	imagerel $unwind$??$?6U?$char_traits@D@std@@@std@@YAAEAV?$basic_ostream@DU?$char_traits@D@std@@@0@AEAV10@PEBD@Z
pdata	ENDS
;	COMDAT pdata
pdata	SEGMENT
$pdata$?dtor$0@?0???$?6U?$char_traits@D@std@@@std@@YAAEAV?$basic_ostream@DU?$char_traits@D@std@@@0@AEAV10@PEBD@Z@4HA DD imagerel ?dtor$0@?0???$?6U?$char_traits@D@std@@@std@@YAAEAV?$basic_ostream@DU?$char_traits@D@std@@@0@AEAV10@PEBD@Z@4HA
	DD	imagerel ?dtor$0@?0???$?6U?$char_traits@D@std@@@std@@YAAEAV?$basic_ostream@DU?$char_traits@D@std@@@0@AEAV10@PEBD@Z@4HA+35
	DD	imagerel $unwind$?dtor$0@?0???$?6U?$char_traits@D@std@@@std@@YAAEAV?$basic_ostream@DU?$char_traits@D@std@@@0@AEAV10@PEBD@Z@4HA
pdata	ENDS
;	COMDAT pdata
pdata	SEGMENT
$pdata$?catch$1@?0???$?6U?$char_traits@D@std@@@std@@YAAEAV?$basic_ostream@DU?$char_traits@D@std@@@0@AEAV10@PEBD@Z@4HA DD imagerel ?catch$1@?0???$?6U?$char_traits@D@std@@@std@@YAAEAV?$basic_ostream@DU?$char_traits@D@std@@@0@AEAV10@PEBD@Z@4HA
	DD	imagerel ?catch$1@?0???$?6U?$char_traits@D@std@@@std@@YAAEAV?$basic_ostream@DU?$char_traits@D@std@@@0@AEAV10@PEBD@Z@4HA+90
	DD	imagerel $unwind$?catch$1@?0???$?6U?$char_traits@D@std@@@std@@YAAEAV?$basic_ostream@DU?$char_traits@D@std@@@0@AEAV10@PEBD@Z@4HA
pdata	ENDS
;	COMDAT pdata
pdata	SEGMENT
$pdata$??$endl@DU?$char_traits@D@std@@@std@@YAAEAV?$basic_ostream@DU?$char_traits@D@std@@@0@AEAV10@@Z DD imagerel $LN3
	DD	imagerel $LN3+87
	DD	imagerel $unwind$??$endl@DU?$char_traits@D@std@@@std@@YAAEAV?$basic_ostream@DU?$char_traits@D@std@@@0@AEAV10@@Z
pdata	ENDS
;	COMDAT pdata
pdata	SEGMENT
$pdata$??0_Sentry_base@?$basic_ostream@DU?$char_traits@D@std@@@std@@QEAA@AEAV12@@Z DD imagerel $LN4
	DD	imagerel $LN4+113
	DD	imagerel $unwind$??0_Sentry_base@?$basic_ostream@DU?$char_traits@D@std@@@std@@QEAA@AEAV12@@Z
pdata	ENDS
;	COMDAT pdata
pdata	SEGMENT
$pdata$??1_Sentry_base@?$basic_ostream@DU?$char_traits@D@std@@@std@@QEAA@XZ DD imagerel $LN4
	DD	imagerel $LN4+91
	DD	imagerel $unwind$??1_Sentry_base@?$basic_ostream@DU?$char_traits@D@std@@@std@@QEAA@XZ
pdata	ENDS
;	COMDAT pdata
pdata	SEGMENT
$pdata$??0sentry@?$basic_ostream@DU?$char_traits@D@std@@@std@@QEAA@AEAV12@@Z DD imagerel $LN7
	DD	imagerel $LN7+211
	DD	imagerel $unwind$??0sentry@?$basic_ostream@DU?$char_traits@D@std@@@std@@QEAA@AEAV12@@Z
pdata	ENDS
;	COMDAT pdata
pdata	SEGMENT
$pdata$?dtor$0@?0???0sentry@?$basic_ostream@DU?$char_traits@D@std@@@std@@QEAA@AEAV12@@Z@4HA DD imagerel ?dtor$0@?0???0sentry@?$basic_ostream@DU?$char_traits@D@std@@@std@@QEAA@AEAV12@@Z@4HA
	DD	imagerel ?dtor$0@?0???0sentry@?$basic_ostream@DU?$char_traits@D@std@@@std@@QEAA@AEAV12@@Z@4HA+35
	DD	imagerel $unwind$?dtor$0@?0???0sentry@?$basic_ostream@DU?$char_traits@D@std@@@std@@QEAA@AEAV12@@Z@4HA
pdata	ENDS
;	COMDAT pdata
pdata	SEGMENT
$pdata$??1sentry@?$basic_ostream@DU?$char_traits@D@std@@@std@@QEAA@XZ DD imagerel $LN6
	DD	imagerel $LN6+79
	DD	imagerel $unwind$??1sentry@?$basic_ostream@DU?$char_traits@D@std@@@std@@QEAA@XZ
pdata	ENDS
;	COMDAT pdata
pdata	SEGMENT
$pdata$??Bsentry@?$basic_ostream@DU?$char_traits@D@std@@@std@@QEBA_NXZ DD imagerel $LN3
	DD	imagerel $LN3+17
	DD	imagerel $unwind$??Bsentry@?$basic_ostream@DU?$char_traits@D@std@@@std@@QEBA_NXZ
pdata	ENDS
;	COMDAT pdata
pdata	SEGMENT
$pdata$??$_Eval@V?$mersenne_twister_engine@I$0CA@$0CHA@$0BIN@$0BP@$0JJAILANP@$0L@$0PPPPPPPP@$06$0JNCMFGIA@$0P@$0OPMGAAAA@$0BC@$0GMAHIJGF@@std@@@?$uniform_int@H@std@@AEBAHAEAV?$mersenne_twister_engine@I$0CA@$0CHA@$0BIN@$0BP@$0JJAILANP@$0L@$0PPPPPPPP@$06$0JNCMFGIA@$0P@$0OPMGAAAA@$0BC@$0GMAHIJGF@@1@HH@Z DD imagerel $LN5
	DD	imagerel $LN5+197
	DD	imagerel $unwind$??$_Eval@V?$mersenne_twister_engine@I$0CA@$0CHA@$0BIN@$0BP@$0JJAILANP@$0L@$0PPPPPPPP@$06$0JNCMFGIA@$0P@$0OPMGAAAA@$0BC@$0GMAHIJGF@@std@@@?$uniform_int@H@std@@AEBAHAEAV?$mersenne_twister_engine@I$0CA@$0CHA@$0BIN@$0BP@$0JJAILANP@$0L@$0PPPPPPPP@$06$0JNCMFGIA@$0P@$0OPMGAAAA@$0BC@$0GMAHIJGF@@1@HH@Z
pdata	ENDS
;	COMDAT pdata
pdata	SEGMENT
$pdata$??0?$_Rng_from_urng_v2@IV?$mersenne_twister_engine@I$0CA@$0CHA@$0BIN@$0BP@$0JJAILANP@$0L@$0PPPPPPPP@$06$0JNCMFGIA@$0P@$0OPMGAAAA@$0BC@$0GMAHIJGF@@std@@@std@@QEAA@AEAV?$mersenne_twister_engine@I$0CA@$0CHA@$0BIN@$0BP@$0JJAILANP@$0L@$0PPPPPPPP@$06$0JNCMFGIA@$0P@$0OPMGAAAA@$0BC@$0GMAHIJGF@@1@@Z DD imagerel $LN3
	DD	imagerel $LN3+31
	DD	imagerel $unwind$??0?$_Rng_from_urng_v2@IV?$mersenne_twister_engine@I$0CA@$0CHA@$0BIN@$0BP@$0JJAILANP@$0L@$0PPPPPPPP@$06$0JNCMFGIA@$0P@$0OPMGAAAA@$0BC@$0GMAHIJGF@@std@@@std@@QEAA@AEAV?$mersenne_twister_engine@I$0CA@$0CHA@$0BIN@$0BP@$0JJAILANP@$0L@$0PPPPPPPP@$06$0JNCMFGIA@$0P@$0OPMGAAAA@$0BC@$0GMAHIJGF@@1@@Z
pdata	ENDS
;	COMDAT pdata
pdata	SEGMENT
$pdata$??R?$_Rng_from_urng_v2@IV?$mersenne_twister_engine@I$0CA@$0CHA@$0BIN@$0BP@$0JJAILANP@$0L@$0PPPPPPPP@$06$0JNCMFGIA@$0P@$0OPMGAAAA@$0BC@$0GMAHIJGF@@std@@@std@@QEAAII@Z DD imagerel $LN6
	DD	imagerel $LN6+187
	DD	imagerel $unwind$??R?$_Rng_from_urng_v2@IV?$mersenne_twister_engine@I$0CA@$0CHA@$0BIN@$0BP@$0JJAILANP@$0L@$0PPPPPPPP@$06$0JNCMFGIA@$0P@$0OPMGAAAA@$0BC@$0GMAHIJGF@@std@@@std@@QEAAII@Z
pdata	ENDS
;	COMDAT pdata
pdata	SEGMENT
$pdata$?_Get_all_bits@?$_Rng_from_urng_v2@IV?$mersenne_twister_engine@I$0CA@$0CHA@$0BIN@$0BP@$0JJAILANP@$0L@$0PPPPPPPP@$06$0JNCMFGIA@$0P@$0OPMGAAAA@$0BC@$0GMAHIJGF@@std@@@std@@QEAAIXZ DD imagerel $LN3
	DD	imagerel $LN3+34
	DD	imagerel $unwind$?_Get_all_bits@?$_Rng_from_urng_v2@IV?$mersenne_twister_engine@I$0CA@$0CHA@$0BIN@$0BP@$0JJAILANP@$0L@$0PPPPPPPP@$06$0JNCMFGIA@$0P@$0OPMGAAAA@$0BC@$0GMAHIJGF@@std@@@std@@QEAAIXZ
pdata	ENDS
;	COMDAT pdata
pdata	SEGMENT
$pdata$?_Get_bits@?$_Rng_from_urng_v2@IV?$mersenne_twister_engine@I$0CA@$0CHA@$0BIN@$0BP@$0JJAILANP@$0L@$0PPPPPPPP@$06$0JNCMFGIA@$0P@$0OPMGAAAA@$0BC@$0GMAHIJGF@@std@@@std@@AEAAIXZ DD imagerel $LN7
	DD	imagerel $LN7+48
	DD	imagerel $unwind$?_Get_bits@?$_Rng_from_urng_v2@IV?$mersenne_twister_engine@I$0CA@$0CHA@$0BIN@$0BP@$0JJAILANP@$0L@$0PPPPPPPP@$06$0JNCMFGIA@$0P@$0OPMGAAAA@$0BC@$0GMAHIJGF@@std@@@std@@AEAAIXZ
pdata	ENDS
;	COMDAT pdata
pdata	SEGMENT
$pdata$?_Get_random_product@?$_Rng_from_urng_v2@IV?$mersenne_twister_engine@I$0CA@$0CHA@$0BIN@$0BP@$0JJAILANP@$0L@$0PPPPPPPP@$06$0JNCMFGIA@$0P@$0OPMGAAAA@$0BC@$0GMAHIJGF@@std@@@std@@AEAA_KII@Z DD imagerel $LN3
	DD	imagerel $LN3+51
	DD	imagerel $unwind$?_Get_random_product@?$_Rng_from_urng_v2@IV?$mersenne_twister_engine@I$0CA@$0CHA@$0BIN@$0BP@$0JJAILANP@$0L@$0PPPPPPPP@$06$0JNCMFGIA@$0P@$0OPMGAAAA@$0BC@$0GMAHIJGF@@std@@@std@@AEAA_KII@Z
pdata	ENDS
;	COMDAT rtc$TMZ
rtc$TMZ	SEGMENT
_RTC_Shutdown.rtc$TMZ DQ FLAT:_RTC_Shutdown
rtc$TMZ	ENDS
;	COMDAT rtc$IMZ
rtc$IMZ	SEGMENT
_RTC_InitBase.rtc$IMZ DQ FLAT:_RTC_InitBase
rtc$IMZ	ENDS
;	COMDAT ??_C@_1GA@FJHEAOJP@?$AA?$CC?$AAi?$AAn?$AAv?$AAa?$AAl?$AAi?$AAd?$AA?5?$AAm?$AAi?$AAn?$AA?5?$AAa?$AAn@
CONST	SEGMENT
??_C@_1GA@FJHEAOJP@?$AA?$CC?$AAi?$AAn?$AAv?$AAa?$AAl?$AAi?$AAd?$AA?5?$AAm?$AAi?$AAn?$AA?5?$AAa?$AAn@ DB '"'
	DB	00H, 'i', 00H, 'n', 00H, 'v', 00H, 'a', 00H, 'l', 00H, 'i', 00H
	DB	'd', 00H, ' ', 00H, 'm', 00H, 'i', 00H, 'n', 00H, ' ', 00H, 'a'
	DB	00H, 'n', 00H, 'd', 00H, ' ', 00H, 'm', 00H, 'a', 00H, 'x', 00H
	DB	' ', 00H, 'a', 00H, 'r', 00H, 'g', 00H, 'u', 00H, 'm', 00H, 'e'
	DB	00H, 'n', 00H, 't', 00H, 's', 00H, ' ', 00H, 'f', 00H, 'o', 00H
	DB	'r', 00H, ' ', 00H, 'u', 00H, 'n', 00H, 'i', 00H, 'f', 00H, 'o'
	DB	00H, 'r', 00H, 'm', 00H, '_', 00H, 'i', 00H, 'n', 00H, 't', 00H
	DB	'"', 00H, 00H, 00H				; `string'
CONST	ENDS
;	COMDAT ??_C@_0CO@CCCJIBKO@invalid?5min?5and?5max?5arguments?5f@
CONST	SEGMENT
??_C@_0CO@CCCJIBKO@invalid?5min?5and?5max?5arguments?5f@ DB 'invalid min '
	DB	'and max arguments for uniform_int', 00H	; `string'
CONST	ENDS
;	COMDAT ??_C@_1MC@DOHEDGIC@?$AAC?$AA?3?$AA?2?$AAP?$AAr?$AAo?$AAg?$AAr?$AAa?$AAm?$AA?5?$AAF?$AAi?$AAl?$AAe@
CONST	SEGMENT
??_C@_1MC@DOHEDGIC@?$AAC?$AA?3?$AA?2?$AAP?$AAr?$AAo?$AAg?$AAr?$AAa?$AAm?$AA?5?$AAF?$AAi?$AAl?$AAe@ DB 'C'
	DB	00H, ':', 00H, '\', 00H, 'P', 00H, 'r', 00H, 'o', 00H, 'g', 00H
	DB	'r', 00H, 'a', 00H, 'm', 00H, ' ', 00H, 'F', 00H, 'i', 00H, 'l'
	DB	00H, 'e', 00H, 's', 00H, '\', 00H, 'M', 00H, 'i', 00H, 'c', 00H
	DB	'r', 00H, 'o', 00H, 's', 00H, 'o', 00H, 'f', 00H, 't', 00H, ' '
	DB	00H, 'V', 00H, 'i', 00H, 's', 00H, 'u', 00H, 'a', 00H, 'l', 00H
	DB	' ', 00H, 'S', 00H, 't', 00H, 'u', 00H, 'd', 00H, 'i', 00H, 'o'
	DB	00H, '\', 00H, '2', 00H, '0', 00H, '2', 00H, '2', 00H, '\', 00H
	DB	'C', 00H, 'o', 00H, 'm', 00H, 'm', 00H, 'u', 00H, 'n', 00H, 'i'
	DB	00H, 't', 00H, 'y', 00H, '\', 00H, 'V', 00H, 'C', 00H, '\', 00H
	DB	'T', 00H, 'o', 00H, 'o', 00H, 'l', 00H, 's', 00H, '\', 00H, 'M'
	DB	00H, 'S', 00H, 'V', 00H, 'C', 00H, '\', 00H, '1', 00H, '4', 00H
	DB	'.', 00H, '3', 00H, '8', 00H, '.', 00H, '3', 00H, '3', 00H, '1'
	DB	00H, '3', 00H, '0', 00H, '\', 00H, 'i', 00H, 'n', 00H, 'c', 00H
	DB	'l', 00H, 'u', 00H, 'd', 00H, 'e', 00H, '\', 00H, 'r', 00H, 'a'
	DB	00H, 'n', 00H, 'd', 00H, 'o', 00H, 'm', 00H, 00H, 00H ; `string'
CONST	ENDS
;	COMDAT ??_C@_0GB@HCBOKIBA@C?3?2Program?5Files?2Microsoft?5Visu@
CONST	SEGMENT
??_C@_0GB@HCBOKIBA@C?3?2Program?5Files?2Microsoft?5Visu@ DB 'C:\Program F'
	DB	'iles\Microsoft Visual Studio\2022\Community\VC\Tools\MSVC\14.'
	DB	'38.33130\include\random', 00H		; `string'
CONST	ENDS
;	COMDAT ??_C@_11LOCGONAA@@
CONST	SEGMENT
??_C@_11LOCGONAA@@ DB 00H, 00H				; `string'
CONST	ENDS
;	COMDAT ??_C@_02DKCKIIND@?$CFs@
CONST	SEGMENT
??_C@_02DKCKIIND@?$CFs@ DB '%s', 00H			; `string'
CONST	ENDS
;	COMDAT xdata
xdata	SEGMENT
$unwind$?_Get_random_product@?$_Rng_from_urng_v2@IV?$mersenne_twister_engine@I$0CA@$0CHA@$0BIN@$0BP@$0JJAILANP@$0L@$0PPPPPPPP@$06$0JNCMFGIA@$0P@$0OPMGAAAA@$0BC@$0GMAHIJGF@@std@@@std@@AEAA_KII@Z DD 021301H
	DD	0700f5213H
xdata	ENDS
;	COMDAT xdata
xdata	SEGMENT
$unwind$?_Get_bits@?$_Rng_from_urng_v2@IV?$mersenne_twister_engine@I$0CA@$0CHA@$0BIN@$0BP@$0JJAILANP@$0L@$0PPPPPPPP@$06$0JNCMFGIA@$0P@$0OPMGAAAA@$0BC@$0GMAHIJGF@@std@@@std@@AEAAIXZ DD 020a01H
	DD	07006520aH
xdata	ENDS
;	COMDAT xdata
xdata	SEGMENT
$unwind$?_Get_all_bits@?$_Rng_from_urng_v2@IV?$mersenne_twister_engine@I$0CA@$0CHA@$0BIN@$0BP@$0JJAILANP@$0L@$0PPPPPPPP@$06$0JNCMFGIA@$0P@$0OPMGAAAA@$0BC@$0GMAHIJGF@@std@@@std@@QEAAIXZ DD 020a01H
	DD	07006520aH
xdata	ENDS
;	COMDAT xdata
xdata	SEGMENT
$unwind$??R?$_Rng_from_urng_v2@IV?$mersenne_twister_engine@I$0CA@$0CHA@$0BIN@$0BP@$0JJAILANP@$0L@$0PPPPPPPP@$06$0JNCMFGIA@$0P@$0OPMGAAAA@$0BC@$0GMAHIJGF@@std@@@std@@QEAAII@Z DD 020e01H
	DD	0700a720eH
xdata	ENDS
;	COMDAT xdata
xdata	SEGMENT
$unwind$??0?$_Rng_from_urng_v2@IV?$mersenne_twister_engine@I$0CA@$0CHA@$0BIN@$0BP@$0JJAILANP@$0L@$0PPPPPPPP@$06$0JNCMFGIA@$0P@$0OPMGAAAA@$0BC@$0GMAHIJGF@@std@@@std@@QEAA@AEAV?$mersenne_twister_engine@I$0CA@$0CHA@$0BIN@$0BP@$0JJAILANP@$0L@$0PPPPPPPP@$06$0JNCMFGIA@$0P@$0OPMGAAAA@$0BC@$0GMAHIJGF@@1@@Z DD 010b01H
	DD	0700bH
xdata	ENDS
;	COMDAT xdata
xdata	SEGMENT
$unwind$??$_Eval@V?$mersenne_twister_engine@I$0CA@$0CHA@$0BIN@$0BP@$0JJAILANP@$0L@$0PPPPPPPP@$06$0JNCMFGIA@$0P@$0OPMGAAAA@$0BC@$0GMAHIJGF@@std@@@?$uniform_int@H@std@@AEBAHAEAV?$mersenne_twister_engine@I$0CA@$0CHA@$0BIN@$0BP@$0JJAILANP@$0L@$0PPPPPPPP@$06$0JNCMFGIA@$0P@$0OPMGAAAA@$0BC@$0GMAHIJGF@@1@HH@Z DD 022f01H
	DD	070157219H
xdata	ENDS
;	COMDAT CONST
CONST	SEGMENT
??$_Eval@V?$mersenne_twister_engine@I$0CA@$0CHA@$0BIN@$0BP@$0JJAILANP@$0L@$0PPPPPPPP@$06$0JNCMFGIA@$0P@$0OPMGAAAA@$0BC@$0GMAHIJGF@@std@@@?$uniform_int@H@std@@AEBAHAEAV?$mersenne_twister_engine@I$0CA@$0CHA@$0BIN@$0BP@$0JJAILANP@$0L@$0PPPPPPPP@$06$0JNCMFGIA@$0P@$0OPMGAAAA@$0BC@$0GMAHIJGF@@1@HH@Z$rtcName$0 DB 05fH ; std::uniform_int<int>::_Eval<std::mersenne_twister_engine<unsigned int,32,624,397,31,2567483615,11,4294967295,7,2636928640,15,4022730752,18,1812433253> >
	DB	047H
	DB	065H
	DB	06eH
	DB	065H
	DB	072H
	DB	061H
	DB	074H
	DB	06fH
	DB	072H
	DB	00H
	ORG $+5
??$_Eval@V?$mersenne_twister_engine@I$0CA@$0CHA@$0BIN@$0BP@$0JJAILANP@$0L@$0PPPPPPPP@$06$0JNCMFGIA@$0P@$0OPMGAAAA@$0BC@$0GMAHIJGF@@std@@@?$uniform_int@H@std@@AEBAHAEAV?$mersenne_twister_engine@I$0CA@$0CHA@$0BIN@$0BP@$0JJAILANP@$0L@$0PPPPPPPP@$06$0JNCMFGIA@$0P@$0OPMGAAAA@$0BC@$0GMAHIJGF@@1@HH@Z$rtcVarDesc DD 028H ; std::uniform_int<int>::_Eval<std::mersenne_twister_engine<unsigned int,32,624,397,31,2567483615,11,4294967295,7,2636928640,15,4022730752,18,1812433253> >
	DD	08H
	DQ	FLAT:??$_Eval@V?$mersenne_twister_engine@I$0CA@$0CHA@$0BIN@$0BP@$0JJAILANP@$0L@$0PPPPPPPP@$06$0JNCMFGIA@$0P@$0OPMGAAAA@$0BC@$0GMAHIJGF@@std@@@?$uniform_int@H@std@@AEBAHAEAV?$mersenne_twister_engine@I$0CA@$0CHA@$0BIN@$0BP@$0JJAILANP@$0L@$0PPPPPPPP@$06$0JNCMFGIA@$0P@$0OPMGAAAA@$0BC@$0GMAHIJGF@@1@HH@Z$rtcName$0
	ORG $+48
??$_Eval@V?$mersenne_twister_engine@I$0CA@$0CHA@$0BIN@$0BP@$0JJAILANP@$0L@$0PPPPPPPP@$06$0JNCMFGIA@$0P@$0OPMGAAAA@$0BC@$0GMAHIJGF@@std@@@?$uniform_int@H@std@@AEBAHAEAV?$mersenne_twister_engine@I$0CA@$0CHA@$0BIN@$0BP@$0JJAILANP@$0L@$0PPPPPPPP@$06$0JNCMFGIA@$0P@$0OPMGAAAA@$0BC@$0GMAHIJGF@@1@HH@Z$rtcFrameData DD 01H ; std::uniform_int<int>::_Eval<std::mersenne_twister_engine<unsigned int,32,624,397,31,2567483615,11,4294967295,7,2636928640,15,4022730752,18,1812433253> >
	DD	00H
	DQ	FLAT:??$_Eval@V?$mersenne_twister_engine@I$0CA@$0CHA@$0BIN@$0BP@$0JJAILANP@$0L@$0PPPPPPPP@$06$0JNCMFGIA@$0P@$0OPMGAAAA@$0BC@$0GMAHIJGF@@std@@@?$uniform_int@H@std@@AEBAHAEAV?$mersenne_twister_engine@I$0CA@$0CHA@$0BIN@$0BP@$0JJAILANP@$0L@$0PPPPPPPP@$06$0JNCMFGIA@$0P@$0OPMGAAAA@$0BC@$0GMAHIJGF@@1@HH@Z$rtcVarDesc
CONST	ENDS
;	COMDAT xdata
xdata	SEGMENT
$unwind$??Bsentry@?$basic_ostream@DU?$char_traits@D@std@@@std@@QEBA_NXZ DD 010601H
	DD	07006H
xdata	ENDS
;	COMDAT xdata
xdata	SEGMENT
$unwind$??1sentry@?$basic_ostream@DU?$char_traits@D@std@@@std@@QEAA@XZ DD 020a01H
	DD	07006520aH
xdata	ENDS
;	COMDAT voltbl
voltbl	SEGMENT
_volmd	DB	00H
	DB	05H
voltbl	ENDS
;	COMDAT xdata
xdata	SEGMENT
$unwind$?dtor$0@?0???0sentry@?$basic_ostream@DU?$char_traits@D@std@@@std@@QEAA@AEAV12@@Z@4HA DD 031001H
	DD	0700c4210H
	DD	0500bH
xdata	ENDS
;	COMDAT xdata
xdata	SEGMENT
$ip2state$??0sentry@?$basic_ostream@DU?$char_traits@D@std@@@std@@QEAA@AEAV12@@Z DB 06H
	DB	00H
	DB	00H
	DB	'>'
	DB	02H
	DB	0a5H, 02H
	DB	00H
xdata	ENDS
;	COMDAT xdata
xdata	SEGMENT
$stateUnwindMap$??0sentry@?$basic_ostream@DU?$char_traits@D@std@@@std@@QEAA@AEAV12@@Z DB 02H
	DB	0eH
	DD	imagerel ?dtor$0@?0???0sentry@?$basic_ostream@DU?$char_traits@D@std@@@std@@QEAA@AEAV12@@Z@4HA
xdata	ENDS
;	COMDAT xdata
xdata	SEGMENT
$cppxdata$??0sentry@?$basic_ostream@DU?$char_traits@D@std@@@std@@QEAA@AEAV12@@Z DB 028H
	DD	imagerel $stateUnwindMap$??0sentry@?$basic_ostream@DU?$char_traits@D@std@@@std@@QEAA@AEAV12@@Z
	DD	imagerel $ip2state$??0sentry@?$basic_ostream@DU?$char_traits@D@std@@@std@@QEAA@AEAV12@@Z
xdata	ENDS
;	COMDAT xdata
xdata	SEGMENT
$unwind$??0sentry@?$basic_ostream@DU?$char_traits@D@std@@@std@@QEAA@AEAV12@@Z DD 020f11H
	DD	0700b520fH
	DD	imagerel __CxxFrameHandler4
	DD	imagerel $cppxdata$??0sentry@?$basic_ostream@DU?$char_traits@D@std@@@std@@QEAA@AEAV12@@Z
xdata	ENDS
;	COMDAT xdata
xdata	SEGMENT
$ip2state$??1_Sentry_base@?$basic_ostream@DU?$char_traits@D@std@@@std@@QEAA@XZ DB 02H
	DB	00H
	DB	00H
xdata	ENDS
;	COMDAT xdata
xdata	SEGMENT
$cppxdata$??1_Sentry_base@?$basic_ostream@DU?$char_traits@D@std@@@std@@QEAA@XZ DB 060H
	DD	imagerel $ip2state$??1_Sentry_base@?$basic_ostream@DU?$char_traits@D@std@@@std@@QEAA@XZ
xdata	ENDS
;	COMDAT xdata
xdata	SEGMENT
$unwind$??1_Sentry_base@?$basic_ostream@DU?$char_traits@D@std@@@std@@QEAA@XZ DD 020a19H
	DD	07006520aH
	DD	imagerel __CxxFrameHandler4
	DD	imagerel $cppxdata$??1_Sentry_base@?$basic_ostream@DU?$char_traits@D@std@@@std@@QEAA@XZ
xdata	ENDS
;	COMDAT xdata
xdata	SEGMENT
$unwind$??0_Sentry_base@?$basic_ostream@DU?$char_traits@D@std@@@std@@QEAA@AEAV12@@Z DD 020f01H
	DD	0700b520fH
xdata	ENDS
;	COMDAT xdata
xdata	SEGMENT
$unwind$??$endl@DU?$char_traits@D@std@@@std@@YAAEAV?$basic_ostream@DU?$char_traits@D@std@@@0@AEAV10@@Z DD 020a01H
	DD	07006520aH
xdata	ENDS
;	COMDAT voltbl
voltbl	SEGMENT
_volmd	DB	00H
	DB	05H
voltbl	ENDS
;	COMDAT voltbl
voltbl	SEGMENT
_volmd	DB	00H
	DB	05H
voltbl	ENDS
;	COMDAT xdata
xdata	SEGMENT
$unwind$?catch$1@?0???$?6U?$char_traits@D@std@@@std@@YAAEAV?$basic_ostream@DU?$char_traits@D@std@@@0@AEAV10@PEBD@Z@4HA DD 031001H
	DD	0700c4210H
	DD	0500bH
xdata	ENDS
;	COMDAT xdata
xdata	SEGMENT
$unwind$?dtor$0@?0???$?6U?$char_traits@D@std@@@std@@YAAEAV?$basic_ostream@DU?$char_traits@D@std@@@0@AEAV10@PEBD@Z@4HA DD 031001H
	DD	0700c4210H
	DD	0500bH
xdata	ENDS
;	COMDAT xdata
xdata	SEGMENT
$ip2state$??$?6U?$char_traits@D@std@@@std@@YAAEAV?$basic_ostream@DU?$char_traits@D@std@@@0@AEAV10@PEBD@Z DB 0aH
	DB	00H
	DB	00H
	DB	0d5H, 03H
	DB	02H
	DB	'B'
	DB	04H
	DB	'M', 0aH
	DB	02H
	DB	092H
	DB	00H
xdata	ENDS
;	COMDAT xdata
xdata	SEGMENT
$handlerMap$??$?6U?$char_traits@D@std@@@std@@YAAEAV?$basic_ostream@DU?$char_traits@D@std@@@0@AEAV10@PEBD@Z DB 02H
	DB	01H
	DB	080H
	DD	imagerel ?catch$1@?0???$?6U?$char_traits@D@std@@@std@@YAAEAV?$basic_ostream@DU?$char_traits@D@std@@@0@AEAV10@PEBD@Z@4HA
xdata	ENDS
;	COMDAT xdata
xdata	SEGMENT
$tryMap$??$?6U?$char_traits@D@std@@@std@@YAAEAV?$basic_ostream@DU?$char_traits@D@std@@@0@AEAV10@PEBD@Z DB 02H
	DB	02H
	DB	02H
	DB	04H
	DD	imagerel $handlerMap$??$?6U?$char_traits@D@std@@@std@@YAAEAV?$basic_ostream@DU?$char_traits@D@std@@@0@AEAV10@PEBD@Z
xdata	ENDS
;	COMDAT xdata
xdata	SEGMENT
$stateUnwindMap$??$?6U?$char_traits@D@std@@@std@@YAAEAV?$basic_ostream@DU?$char_traits@D@std@@@0@AEAV10@PEBD@Z DB 06H
	DB	0eH
	DD	imagerel ?dtor$0@?0???$?6U?$char_traits@D@std@@@std@@YAAEAV?$basic_ostream@DU?$char_traits@D@std@@@0@AEAV10@PEBD@Z@4HA
	DB	028H
	DB	030H
xdata	ENDS
;	COMDAT xdata
xdata	SEGMENT
$cppxdata$??$?6U?$char_traits@D@std@@@std@@YAAEAV?$basic_ostream@DU?$char_traits@D@std@@@0@AEAV10@PEBD@Z DB 038H
	DD	imagerel $stateUnwindMap$??$?6U?$char_traits@D@std@@@std@@YAAEAV?$basic_ostream@DU?$char_traits@D@std@@@0@AEAV10@PEBD@Z
	DD	imagerel $tryMap$??$?6U?$char_traits@D@std@@@std@@YAAEAV?$basic_ostream@DU?$char_traits@D@std@@@0@AEAV10@PEBD@Z
	DD	imagerel $ip2state$??$?6U?$char_traits@D@std@@@std@@YAAEAV?$basic_ostream@DU?$char_traits@D@std@@@0@AEAV10@PEBD@Z
xdata	ENDS
;	COMDAT xdata
xdata	SEGMENT
$unwind$??$?6U?$char_traits@D@std@@@std@@YAAEAV?$basic_ostream@DU?$char_traits@D@std@@@0@AEAV10@PEBD@Z DD 032b19H
	DD	01a0112H
	DD	0700bH
	DD	imagerel __CxxFrameHandler4
	DD	imagerel $cppxdata$??$?6U?$char_traits@D@std@@@std@@YAAEAV?$basic_ostream@DU?$char_traits@D@std@@@0@AEAV10@PEBD@Z
xdata	ENDS
;	COMDAT CONST
CONST	SEGMENT
??$?6U?$char_traits@D@std@@@std@@YAAEAV?$basic_ostream@DU?$char_traits@D@std@@@0@AEAV10@PEBD@Z$rtcName$0 DB 05fH ; std::operator<<<std::char_traits<char> >
	DB	04fH
	DB	06bH
	DB	00H
	ORG $+12
??$?6U?$char_traits@D@std@@@std@@YAAEAV?$basic_ostream@DU?$char_traits@D@std@@@0@AEAV10@PEBD@Z$rtcVarDesc DD 048H ; std::operator<<<std::char_traits<char> >
	DD	010H
	DQ	FLAT:??$?6U?$char_traits@D@std@@@std@@YAAEAV?$basic_ostream@DU?$char_traits@D@std@@@0@AEAV10@PEBD@Z$rtcName$0
	ORG $+48
??$?6U?$char_traits@D@std@@@std@@YAAEAV?$basic_ostream@DU?$char_traits@D@std@@@0@AEAV10@PEBD@Z$rtcFrameData DD 01H ; std::operator<<<std::char_traits<char> >
	DD	00H
	DQ	FLAT:??$?6U?$char_traits@D@std@@@std@@YAAEAV?$basic_ostream@DU?$char_traits@D@std@@@0@AEAV10@PEBD@Z$rtcVarDesc
CONST	ENDS
;	COMDAT xdata
xdata	SEGMENT
$unwind$??$?RV?$mersenne_twister_engine@I$0CA@$0CHA@$0BIN@$0BP@$0JJAILANP@$0L@$0PPPPPPPP@$06$0JNCMFGIA@$0P@$0OPMGAAAA@$0BC@$0GMAHIJGF@@std@@@?$uniform_int@H@std@@QEAAHAEAV?$mersenne_twister_engine@I$0CA@$0CHA@$0BIN@$0BP@$0JJAILANP@$0L@$0PPPPPPPP@$06$0JNCMFGIA@$0P@$0OPMGAAAA@$0BC@$0GMAHIJGF@@1@@Z DD 020f01H
	DD	0700b320fH
xdata	ENDS
;	COMDAT xdata
xdata	SEGMENT
$unwind$??0?$uniform_int_distribution@H@std@@QEAA@HH@Z DD 021301H
	DD	0700f3213H
xdata	ENDS
;	COMDAT xdata
xdata	SEGMENT
$unwind$?_Init@param_type@?$uniform_int@H@std@@QEAAXHH@Z DD 021301H
	DD	0700f5213H
xdata	ENDS
;	COMDAT xdata
xdata	SEGMENT
$unwind$??0param_type@?$uniform_int@H@std@@QEAA@HH@Z DD 021301H
	DD	0700f3213H
xdata	ENDS
;	COMDAT xdata
xdata	SEGMENT
$unwind$?_Adjust@?$uniform_int@H@std@@CAII@Z DD 020901H
	DD	070051209H
xdata	ENDS
;	COMDAT xdata
xdata	SEGMENT
$unwind$??0?$uniform_int@H@std@@QEAA@HH@Z DD 021301H
	DD	0700f5213H
xdata	ENDS
;	COMDAT xdata
xdata	SEGMENT
$unwind$??0?$mersenne_twister_engine@I$0CA@$0CHA@$0BIN@$0BP@$0JJAILANP@$0L@$0PPPPPPPP@$06$0JNCMFGIA@$0P@$0OPMGAAAA@$0BC@$0GMAHIJGF@@std@@QEAA@I@Z DD 020e01H
	DD	0700a320eH
xdata	ENDS
;	COMDAT xdata
xdata	SEGMENT
$unwind$?_Refill_upper@?$mersenne_twister@I$0CA@$0CHA@$0BIN@$0BP@$0JJAILANP@$0L@$06$0JNCMFGIA@$0P@$0OPMGAAAA@$0BC@@std@@IEAAXXZ DD 020a01H
	DD	07006120aH
xdata	ENDS
;	COMDAT xdata
xdata	SEGMENT
$unwind$?_Refill_lower@?$mersenne_twister@I$0CA@$0CHA@$0BIN@$0BP@$0JJAILANP@$0L@$06$0JNCMFGIA@$0P@$0OPMGAAAA@$0BC@@std@@IEAAXXZ DD 020a01H
	DD	07006920aH
xdata	ENDS
;	COMDAT xdata
xdata	SEGMENT
$unwind$??R?$mersenne_twister@I$0CA@$0CHA@$0BIN@$0BP@$0JJAILANP@$0L@$06$0JNCMFGIA@$0P@$0OPMGAAAA@$0BC@@std@@QEAAIXZ DD 020a01H
	DD	07006520aH
xdata	ENDS
;	COMDAT xdata
xdata	SEGMENT
$unwind$?seed@?$mersenne_twister@I$0CA@$0CHA@$0BIN@$0BP@$0JJAILANP@$0L@$06$0JNCMFGIA@$0P@$0OPMGAAAA@$0BC@@std@@QEAAXII@Z DD 021301H
	DD	0700f3213H
xdata	ENDS
;	COMDAT xdata
xdata	SEGMENT
$unwind$??0?$mersenne_twister@I$0CA@$0CHA@$0BIN@$0BP@$0JJAILANP@$0L@$06$0JNCMFGIA@$0P@$0OPMGAAAA@$0BC@@std@@QEAA@III@Z DD 021801H
	DD	070143218H
xdata	ENDS
;	COMDAT xdata
xdata	SEGMENT
$unwind$??Rrandom_device@std@@QEAAIXZ DD 020a01H
	DD	07006320aH
xdata	ENDS
;	COMDAT xdata
xdata	SEGMENT
$unwind$?eof@?$_Narrow_char_traits@DH@std@@SAHXZ DD 010201H
	DD	07002H
xdata	ENDS
;	COMDAT xdata
xdata	SEGMENT
$unwind$?eq_int_type@?$_Narrow_char_traits@DH@std@@SA_NHH@Z DD 020d01H
	DD	07009120dH
xdata	ENDS
;	COMDAT xdata
xdata	SEGMENT
$unwind$?length@?$_Narrow_char_traits@DH@std@@SA_KQEBD@Z DD 020a01H
	DD	07006120aH
xdata	ENDS
;	COMDAT voltbl
voltbl	SEGMENT
_volmd	DB	038H
	DB	099H
voltbl	ENDS
;	COMDAT xdata
xdata	SEGMENT
$unwind$?randomInt@LifeExe@@YAHHH@Z DD 034019H
	DD	02840116H
	DD	07009H
	DD	imagerel __GSHandlerCheck
	DD	01410H
xdata	ENDS
;	COMDAT CONST
CONST	SEGMENT
?randomInt@LifeExe@@YAHHH@Z$rtcName$0 DB 072H		; LifeExe::randomInt
	DB	064H
	DB	00H
	ORG $+1
?randomInt@LifeExe@@YAHHH@Z$rtcName$1 DB 067H		; LifeExe::randomInt
	DB	065H
	DB	06eH
	DB	00H
?randomInt@LifeExe@@YAHHH@Z$rtcName$2 DB 064H		; LifeExe::randomInt
	DB	069H
	DB	073H
	DB	074H
	DB	00H
	ORG $+3
?randomInt@LifeExe@@YAHHH@Z$rtcVarDesc DD 013f8H	; LifeExe::randomInt
	DD	08H
	DQ	FLAT:?randomInt@LifeExe@@YAHHH@Z$rtcName$2
	DD	050H
	DD	01388H
	DQ	FLAT:?randomInt@LifeExe@@YAHHH@Z$rtcName$1
	DD	024H
	DD	01H
	DQ	FLAT:?randomInt@LifeExe@@YAHHH@Z$rtcName$0
	ORG $+144
?randomInt@LifeExe@@YAHHH@Z$rtcFrameData DD 03H		; LifeExe::randomInt
	DD	00H
	DQ	FLAT:?randomInt@LifeExe@@YAHHH@Z$rtcVarDesc
CONST	ENDS
voltbl	SEGMENT
_volmd	DD	0ffffffffH
	DDSymXIndex: 	FLAT:?dtor$0@?0???0Character@@QEAA@PEBD@Z@4HA
	DD	00H
	DD	05H
voltbl	ENDS
xdata	SEGMENT
$unwind$??0Character@@QEAA@PEBD@Z DD 020f11H
	DD	0700b720fH
	DD	imagerel __CxxFrameHandler4
	DD	imagerel $cppxdata$??0Character@@QEAA@PEBD@Z
$cppxdata$??0Character@@QEAA@PEBD@Z DB 028H
	DD	imagerel $stateUnwindMap$??0Character@@QEAA@PEBD@Z
	DD	imagerel $ip2state$??0Character@@QEAA@PEBD@Z
$stateUnwindMap$??0Character@@QEAA@PEBD@Z DB 02H
	DB	0eH
	DD	imagerel ?dtor$0@?0???0Character@@QEAA@PEBD@Z@4HA
$ip2state$??0Character@@QEAA@PEBD@Z DB 06H
	DB	00H
	DB	00H
	DB	094H
	DB	02H
	DB	'`'
	DB	00H
	ORG $+2
$unwind$?dtor$0@?0???0Character@@QEAA@PEBD@Z@4HA DD 031001H
	DD	0700c4210H
	DD	0500bH
$unwind$??1Character@@QEAA@XZ DD 020a01H
	DD	07006520aH
$unwind$?name@Character@@QEBAPEBDXZ DD 010601H
	DD	07006H
$unwind$?dead@Character@@QEBA_NXZ DD 020a01H
	DD	07006120aH
$unwind$?attack@Character@@QEAA_NAEAV1@@Z DD 020f01H
	DD	0700b720fH
$unwind$?takeDamage@Character@@QEAAXH@Z DD 020e01H
	DD	0700a720eH
xdata	ENDS
;	COMDAT xdata
xdata	SEGMENT
$unwind$?__empty_global_delete@@YAXPEAX_KW4align_val_t@std@@@Z DD 011001H
	DD	07010H
xdata	ENDS
;	COMDAT xdata
xdata	SEGMENT
$unwind$?__empty_global_delete@@YAXPEAXW4align_val_t@std@@@Z DD 010b01H
	DD	0700bH
xdata	ENDS
;	COMDAT xdata
xdata	SEGMENT
$unwind$?__empty_global_delete@@YAXPEAX_K@Z DD 010b01H
	DD	0700bH
xdata	ENDS
;	COMDAT xdata
xdata	SEGMENT
$unwind$?__empty_global_delete@@YAXPEAX@Z DD 010601H
	DD	07006H
xdata	ENDS
; Function compile flags: /Odtp /RTCsu
;	COMDAT ?_Get_random_product@?$_Rng_from_urng_v2@IV?$mersenne_twister_engine@I$0CA@$0CHA@$0BIN@$0BP@$0JJAILANP@$0L@$0PPPPPPPP@$06$0JNCMFGIA@$0P@$0OPMGAAAA@$0BC@$0GMAHIJGF@@std@@@std@@AEAA_KII@Z
_TEXT	SEGMENT
_Ret$ = 32
this$ = 64
_Index$ = 72
_Niter$ = 80
?_Get_random_product@?$_Rng_from_urng_v2@IV?$mersenne_twister_engine@I$0CA@$0CHA@$0BIN@$0BP@$0JJAILANP@$0L@$0PPPPPPPP@$06$0JNCMFGIA@$0P@$0OPMGAAAA@$0BC@$0GMAHIJGF@@std@@@std@@AEAA_KII@Z PROC ; std::_Rng_from_urng_v2<unsigned int,std::mersenne_twister_engine<unsigned int,32,624,397,31,2567483615,11,4294967295,7,2636928640,15,4022730752,18,1812433253> >::_Get_random_product, COMDAT
; File C:\Program Files\Microsoft Visual Studio\2022\Community\VC\Tools\MSVC\14.38.33130\include\random
; Line 1842
$LN3:
  00000	44 89 44 24 18	 mov	 DWORD PTR [rsp+24], r8d
  00005	89 54 24 10	 mov	 DWORD PTR [rsp+16], edx
  00009	48 89 4c 24 08	 mov	 QWORD PTR [rsp+8], rcx
  0000e	57		 push	 rdi
  0000f	48 83 ec 30	 sub	 rsp, 48			; 00000030H
; Line 1843
  00013	48 8b 4c 24 40	 mov	 rcx, QWORD PTR this$[rsp]
  00018	e8 00 00 00 00	 call	 ?_Get_bits@?$_Rng_from_urng_v2@IV?$mersenne_twister_engine@I$0CA@$0CHA@$0BIN@$0BP@$0JJAILANP@$0L@$0PPPPPPPP@$06$0JNCMFGIA@$0P@$0OPMGAAAA@$0BC@$0GMAHIJGF@@std@@@std@@AEAAIXZ ; std::_Rng_from_urng_v2<unsigned int,std::mersenne_twister_engine<unsigned int,32,624,397,31,2567483615,11,4294967295,7,2636928640,15,4022730752,18,1812433253> >::_Get_bits
  0001d	89 44 24 20	 mov	 DWORD PTR _Ret$[rsp], eax
; Line 1856
  00021	8b 44 24 20	 mov	 eax, DWORD PTR _Ret$[rsp]
  00025	8b 4c 24 48	 mov	 ecx, DWORD PTR _Index$[rsp]
  00029	48 0f af c1	 imul	 rax, rcx
; Line 1858
  0002d	48 83 c4 30	 add	 rsp, 48			; 00000030H
  00031	5f		 pop	 rdi
  00032	c3		 ret	 0
?_Get_random_product@?$_Rng_from_urng_v2@IV?$mersenne_twister_engine@I$0CA@$0CHA@$0BIN@$0BP@$0JJAILANP@$0L@$0PPPPPPPP@$06$0JNCMFGIA@$0P@$0OPMGAAAA@$0BC@$0GMAHIJGF@@std@@@std@@AEAA_KII@Z ENDP ; std::_Rng_from_urng_v2<unsigned int,std::mersenne_twister_engine<unsigned int,32,624,397,31,2567483615,11,4294967295,7,2636928640,15,4022730752,18,1812433253> >::_Get_random_product
_TEXT	ENDS
; Function compile flags: /Odtp /RTCsu
;	COMDAT ?_Get_bits@?$_Rng_from_urng_v2@IV?$mersenne_twister_engine@I$0CA@$0CHA@$0BIN@$0BP@$0JJAILANP@$0L@$0PPPPPPPP@$06$0JNCMFGIA@$0P@$0OPMGAAAA@$0BC@$0GMAHIJGF@@std@@@std@@AEAAIXZ
_TEXT	SEGMENT
_Val$1 = 32
this$ = 64
?_Get_bits@?$_Rng_from_urng_v2@IV?$mersenne_twister_engine@I$0CA@$0CHA@$0BIN@$0BP@$0JJAILANP@$0L@$0PPPPPPPP@$06$0JNCMFGIA@$0P@$0OPMGAAAA@$0BC@$0GMAHIJGF@@std@@@std@@AEAAIXZ PROC ; std::_Rng_from_urng_v2<unsigned int,std::mersenne_twister_engine<unsigned int,32,624,397,31,2567483615,11,4294967295,7,2636928640,15,4022730752,18,1812433253> >::_Get_bits, COMDAT
; File C:\Program Files\Microsoft Visual Studio\2022\Community\VC\Tools\MSVC\14.38.33130\include\random
; Line 1821
$LN7:
  00000	48 89 4c 24 08	 mov	 QWORD PTR [rsp+8], rcx
  00005	57		 push	 rdi
  00006	48 83 ec 30	 sub	 rsp, 48			; 00000030H
$LN2@Get_bits:
; Line 1824
  0000a	48 8b 44 24 40	 mov	 rax, QWORD PTR this$[rsp]
  0000f	48 8b 08	 mov	 rcx, QWORD PTR [rax]
  00012	e8 00 00 00 00	 call	 ??R?$mersenne_twister@I$0CA@$0CHA@$0BIN@$0BP@$0JJAILANP@$0L@$06$0JNCMFGIA@$0P@$0OPMGAAAA@$0BC@@std@@QEAAIXZ ; std::mersenne_twister<unsigned int,32,624,397,31,2567483615,11,7,2636928640,15,4022730752,18>::operator()
  00017	89 44 24 20	 mov	 DWORD PTR _Val$1[rsp], eax
; Line 1826
  0001b	83 7c 24 20 ff	 cmp	 DWORD PTR _Val$1[rsp], -1 ; ffffffffH
  00020	77 06		 ja	 SHORT $LN5@Get_bits
; Line 1827
  00022	8b 44 24 20	 mov	 eax, DWORD PTR _Val$1[rsp]
  00026	eb 02		 jmp	 SHORT $LN1@Get_bits
$LN5@Get_bits:
; Line 1829
  00028	eb e0		 jmp	 SHORT $LN2@Get_bits
$LN1@Get_bits:
; Line 1830
  0002a	48 83 c4 30	 add	 rsp, 48			; 00000030H
  0002e	5f		 pop	 rdi
  0002f	c3		 ret	 0
?_Get_bits@?$_Rng_from_urng_v2@IV?$mersenne_twister_engine@I$0CA@$0CHA@$0BIN@$0BP@$0JJAILANP@$0L@$0PPPPPPPP@$06$0JNCMFGIA@$0P@$0OPMGAAAA@$0BC@$0GMAHIJGF@@std@@@std@@AEAAIXZ ENDP ; std::_Rng_from_urng_v2<unsigned int,std::mersenne_twister_engine<unsigned int,32,624,397,31,2567483615,11,4294967295,7,2636928640,15,4022730752,18,1812433253> >::_Get_bits
_TEXT	ENDS
; Function compile flags: /Odtp /RTCsu
;	COMDAT ?_Get_all_bits@?$_Rng_from_urng_v2@IV?$mersenne_twister_engine@I$0CA@$0CHA@$0BIN@$0BP@$0JJAILANP@$0L@$0PPPPPPPP@$06$0JNCMFGIA@$0P@$0OPMGAAAA@$0BC@$0GMAHIJGF@@std@@@std@@QEAAIXZ
_TEXT	SEGMENT
_Ret$ = 32
this$ = 64
?_Get_all_bits@?$_Rng_from_urng_v2@IV?$mersenne_twister_engine@I$0CA@$0CHA@$0BIN@$0BP@$0JJAILANP@$0L@$0PPPPPPPP@$06$0JNCMFGIA@$0P@$0OPMGAAAA@$0BC@$0GMAHIJGF@@std@@@std@@QEAAIXZ PROC ; std::_Rng_from_urng_v2<unsigned int,std::mersenne_twister_engine<unsigned int,32,624,397,31,2567483615,11,4294967295,7,2636928640,15,4022730752,18,1812433253> >::_Get_all_bits, COMDAT
; File C:\Program Files\Microsoft Visual Studio\2022\Community\VC\Tools\MSVC\14.38.33130\include\random
; Line 1804
$LN3:
  00000	48 89 4c 24 08	 mov	 QWORD PTR [rsp+8], rcx
  00005	57		 push	 rdi
  00006	48 83 ec 30	 sub	 rsp, 48			; 00000030H
; Line 1805
  0000a	48 8b 4c 24 40	 mov	 rcx, QWORD PTR this$[rsp]
  0000f	e8 00 00 00 00	 call	 ?_Get_bits@?$_Rng_from_urng_v2@IV?$mersenne_twister_engine@I$0CA@$0CHA@$0BIN@$0BP@$0JJAILANP@$0L@$0PPPPPPPP@$06$0JNCMFGIA@$0P@$0OPMGAAAA@$0BC@$0GMAHIJGF@@std@@@std@@AEAAIXZ ; std::_Rng_from_urng_v2<unsigned int,std::mersenne_twister_engine<unsigned int,32,624,397,31,2567483615,11,4294967295,7,2636928640,15,4022730752,18,1812433253> >::_Get_bits
  00014	89 44 24 20	 mov	 DWORD PTR _Ret$[rsp], eax
; Line 1814
  00018	8b 44 24 20	 mov	 eax, DWORD PTR _Ret$[rsp]
; Line 1815
  0001c	48 83 c4 30	 add	 rsp, 48			; 00000030H
  00020	5f		 pop	 rdi
  00021	c3		 ret	 0
?_Get_all_bits@?$_Rng_from_urng_v2@IV?$mersenne_twister_engine@I$0CA@$0CHA@$0BIN@$0BP@$0JJAILANP@$0L@$0PPPPPPPP@$06$0JNCMFGIA@$0P@$0OPMGAAAA@$0BC@$0GMAHIJGF@@std@@@std@@QEAAIXZ ENDP ; std::_Rng_from_urng_v2<unsigned int,std::mersenne_twister_engine<unsigned int,32,624,397,31,2567483615,11,4294967295,7,2636928640,15,4022730752,18,1812433253> >::_Get_all_bits
_TEXT	ENDS
; Function compile flags: /Odtp /RTCsu
;	COMDAT ??R?$_Rng_from_urng_v2@IV?$mersenne_twister_engine@I$0CA@$0CHA@$0BIN@$0BP@$0JJAILANP@$0L@$0PPPPPPPP@$06$0JNCMFGIA@$0P@$0OPMGAAAA@$0BC@$0GMAHIJGF@@std@@@std@@QEAAII@Z
_TEXT	SEGMENT
_Mask$ = 32
_Niter$ = 36
_Product$ = 40
_Rem$ = 48
_Threshold$1 = 52
_Generated_bits$ = 56
this$ = 80
_Index$ = 88
??R?$_Rng_from_urng_v2@IV?$mersenne_twister_engine@I$0CA@$0CHA@$0BIN@$0BP@$0JJAILANP@$0L@$0PPPPPPPP@$06$0JNCMFGIA@$0P@$0OPMGAAAA@$0BC@$0GMAHIJGF@@std@@@std@@QEAAII@Z PROC ; std::_Rng_from_urng_v2<unsigned int,std::mersenne_twister_engine<unsigned int,32,624,397,31,2567483615,11,4294967295,7,2636928640,15,4022730752,18,1812433253> >::operator(), COMDAT
; File C:\Program Files\Microsoft Visual Studio\2022\Community\VC\Tools\MSVC\14.38.33130\include\random
; Line 1755
$LN6:
  00000	89 54 24 10	 mov	 DWORD PTR [rsp+16], edx
  00004	48 89 4c 24 08	 mov	 QWORD PTR [rsp+8], rcx
  00009	57		 push	 rdi
  0000a	48 83 ec 40	 sub	 rsp, 64			; 00000040H
; Line 1767
  0000e	c7 44 24 20 ff
	ff ff ff	 mov	 DWORD PTR _Mask$[rsp], -1 ; ffffffffH
; Line 1768
  00016	c7 44 24 24 01
	00 00 00	 mov	 DWORD PTR _Niter$[rsp], 1
; Line 1780
  0001e	44 8b 44 24 24	 mov	 r8d, DWORD PTR _Niter$[rsp]
  00023	8b 54 24 58	 mov	 edx, DWORD PTR _Index$[rsp]
  00027	48 8b 4c 24 50	 mov	 rcx, QWORD PTR this$[rsp]
  0002c	e8 00 00 00 00	 call	 ?_Get_random_product@?$_Rng_from_urng_v2@IV?$mersenne_twister_engine@I$0CA@$0CHA@$0BIN@$0BP@$0JJAILANP@$0L@$0PPPPPPPP@$06$0JNCMFGIA@$0P@$0OPMGAAAA@$0BC@$0GMAHIJGF@@std@@@std@@AEAA_KII@Z ; std::_Rng_from_urng_v2<unsigned int,std::mersenne_twister_engine<unsigned int,32,624,397,31,2567483615,11,4294967295,7,2636928640,15,4022730752,18,1812433253> >::_Get_random_product
  00031	48 89 44 24 28	 mov	 QWORD PTR _Product$[rsp], rax
; Line 1782
  00036	8b 44 24 20	 mov	 eax, DWORD PTR _Mask$[rsp]
  0003a	8b 4c 24 28	 mov	 ecx, DWORD PTR _Product$[rsp]
  0003e	23 c8		 and	 ecx, eax
  00040	8b c1		 mov	 eax, ecx
  00042	89 44 24 30	 mov	 DWORD PTR _Rem$[rsp], eax
; Line 1784
  00046	8b 44 24 58	 mov	 eax, DWORD PTR _Index$[rsp]
  0004a	39 44 24 30	 cmp	 DWORD PTR _Rem$[rsp], eax
  0004e	73 4e		 jae	 SHORT $LN4@operator
; Line 1786
  00050	8b 44 24 58	 mov	 eax, DWORD PTR _Index$[rsp]
  00054	8b 4c 24 20	 mov	 ecx, DWORD PTR _Mask$[rsp]
  00058	2b c8		 sub	 ecx, eax
  0005a	8b c1		 mov	 eax, ecx
  0005c	ff c0		 inc	 eax
  0005e	33 d2		 xor	 edx, edx
  00060	f7 74 24 58	 div	 DWORD PTR _Index$[rsp]
  00064	8b c2		 mov	 eax, edx
  00066	89 44 24 34	 mov	 DWORD PTR _Threshold$1[rsp], eax
$LN2@operator:
; Line 1787
  0006a	8b 44 24 34	 mov	 eax, DWORD PTR _Threshold$1[rsp]
  0006e	39 44 24 30	 cmp	 DWORD PTR _Rem$[rsp], eax
  00072	73 2a		 jae	 SHORT $LN3@operator
; Line 1788
  00074	44 8b 44 24 24	 mov	 r8d, DWORD PTR _Niter$[rsp]
  00079	8b 54 24 58	 mov	 edx, DWORD PTR _Index$[rsp]
  0007d	48 8b 4c 24 50	 mov	 rcx, QWORD PTR this$[rsp]
  00082	e8 00 00 00 00	 call	 ?_Get_random_product@?$_Rng_from_urng_v2@IV?$mersenne_twister_engine@I$0CA@$0CHA@$0BIN@$0BP@$0JJAILANP@$0L@$0PPPPPPPP@$06$0JNCMFGIA@$0P@$0OPMGAAAA@$0BC@$0GMAHIJGF@@std@@@std@@AEAA_KII@Z ; std::_Rng_from_urng_v2<unsigned int,std::mersenne_twister_engine<unsigned int,32,624,397,31,2567483615,11,4294967295,7,2636928640,15,4022730752,18,1812433253> >::_Get_random_product
  00087	48 89 44 24 28	 mov	 QWORD PTR _Product$[rsp], rax
; Line 1789
  0008c	8b 44 24 20	 mov	 eax, DWORD PTR _Mask$[rsp]
  00090	8b 4c 24 28	 mov	 ecx, DWORD PTR _Product$[rsp]
  00094	23 c8		 and	 ecx, eax
  00096	8b c1		 mov	 eax, ecx
  00098	89 44 24 30	 mov	 DWORD PTR _Rem$[rsp], eax
; Line 1790
  0009c	eb cc		 jmp	 SHORT $LN2@operator
$LN3@operator:
$LN4@operator:
; Line 1797
  0009e	c7 44 24 38 20
	00 00 00	 mov	 DWORD PTR _Generated_bits$[rsp], 32 ; 00000020H
; Line 1801
  000a6	8b 44 24 38	 mov	 eax, DWORD PTR _Generated_bits$[rsp]
  000aa	0f b6 c8	 movzx	 ecx, al
  000ad	48 8b 44 24 28	 mov	 rax, QWORD PTR _Product$[rsp]
  000b2	48 d3 e8	 shr	 rax, cl
; Line 1802
  000b5	48 83 c4 40	 add	 rsp, 64			; 00000040H
  000b9	5f		 pop	 rdi
  000ba	c3		 ret	 0
??R?$_Rng_from_urng_v2@IV?$mersenne_twister_engine@I$0CA@$0CHA@$0BIN@$0BP@$0JJAILANP@$0L@$0PPPPPPPP@$06$0JNCMFGIA@$0P@$0OPMGAAAA@$0BC@$0GMAHIJGF@@std@@@std@@QEAAII@Z ENDP ; std::_Rng_from_urng_v2<unsigned int,std::mersenne_twister_engine<unsigned int,32,624,397,31,2567483615,11,4294967295,7,2636928640,15,4022730752,18,1812433253> >::operator()
_TEXT	ENDS
; Function compile flags: /Odtp /RTCsu
;	COMDAT ??0?$_Rng_from_urng_v2@IV?$mersenne_twister_engine@I$0CA@$0CHA@$0BIN@$0BP@$0JJAILANP@$0L@$0PPPPPPPP@$06$0JNCMFGIA@$0P@$0OPMGAAAA@$0BC@$0GMAHIJGF@@std@@@std@@QEAA@AEAV?$mersenne_twister_engine@I$0CA@$0CHA@$0BIN@$0BP@$0JJAILANP@$0L@$0PPPPPPPP@$06$0JNCMFGIA@$0P@$0OPMGAAAA@$0BC@$0GMAHIJGF@@1@@Z
_TEXT	SEGMENT
this$ = 16
_Func$ = 24
??0?$_Rng_from_urng_v2@IV?$mersenne_twister_engine@I$0CA@$0CHA@$0BIN@$0BP@$0JJAILANP@$0L@$0PPPPPPPP@$06$0JNCMFGIA@$0P@$0OPMGAAAA@$0BC@$0GMAHIJGF@@std@@@std@@QEAA@AEAV?$mersenne_twister_engine@I$0CA@$0CHA@$0BIN@$0BP@$0JJAILANP@$0L@$0PPPPPPPP@$06$0JNCMFGIA@$0P@$0OPMGAAAA@$0BC@$0GMAHIJGF@@1@@Z PROC ; std::_Rng_from_urng_v2<unsigned int,std::mersenne_twister_engine<unsigned int,32,624,397,31,2567483615,11,4294967295,7,2636928640,15,4022730752,18,1812433253> >::_Rng_from_urng_v2<unsigned int,std::mersenne_twister_engine<unsigned int,32,624,397,31,2567483615,11,4294967295,7,2636928640,15,4022730752,18,1812433253> >, COMDAT
; File C:\Program Files\Microsoft Visual Studio\2022\Community\VC\Tools\MSVC\14.38.33130\include\random
; Line 1753
$LN3:
  00000	48 89 54 24 10	 mov	 QWORD PTR [rsp+16], rdx
  00005	48 89 4c 24 08	 mov	 QWORD PTR [rsp+8], rcx
  0000a	57		 push	 rdi
  0000b	48 8b 44 24 10	 mov	 rax, QWORD PTR this$[rsp]
  00010	48 8b 4c 24 18	 mov	 rcx, QWORD PTR _Func$[rsp]
  00015	48 89 08	 mov	 QWORD PTR [rax], rcx
  00018	48 8b 44 24 10	 mov	 rax, QWORD PTR this$[rsp]
  0001d	5f		 pop	 rdi
  0001e	c3		 ret	 0
??0?$_Rng_from_urng_v2@IV?$mersenne_twister_engine@I$0CA@$0CHA@$0BIN@$0BP@$0JJAILANP@$0L@$0PPPPPPPP@$06$0JNCMFGIA@$0P@$0OPMGAAAA@$0BC@$0GMAHIJGF@@std@@@std@@QEAA@AEAV?$mersenne_twister_engine@I$0CA@$0CHA@$0BIN@$0BP@$0JJAILANP@$0L@$0PPPPPPPP@$06$0JNCMFGIA@$0P@$0OPMGAAAA@$0BC@$0GMAHIJGF@@1@@Z ENDP ; std::_Rng_from_urng_v2<unsigned int,std::mersenne_twister_engine<unsigned int,32,624,397,31,2567483615,11,4294967295,7,2636928640,15,4022730752,18,1812433253> >::_Rng_from_urng_v2<unsigned int,std::mersenne_twister_engine<unsigned int,32,624,397,31,2567483615,11,4294967295,7,2636928640,15,4022730752,18,1812433253> >
_TEXT	ENDS
; Function compile flags: /Odtp /RTCsu
;	COMDAT ??$_Eval@V?$mersenne_twister_engine@I$0CA@$0CHA@$0BIN@$0BP@$0JJAILANP@$0L@$0PPPPPPPP@$06$0JNCMFGIA@$0P@$0OPMGAAAA@$0BC@$0GMAHIJGF@@std@@@?$uniform_int@H@std@@AEBAHAEAV?$mersenne_twister_engine@I$0CA@$0CHA@$0BIN@$0BP@$0JJAILANP@$0L@$0PPPPPPPP@$06$0JNCMFGIA@$0P@$0OPMGAAAA@$0BC@$0GMAHIJGF@@1@HH@Z
_TEXT	SEGMENT
_Generator$ = 40
_Umin$ = 52
_Umax$ = 56
_Uret$ = 60
this$ = 80
_Eng$ = 88
_Min$ = 96
_Max$ = 104
??$_Eval@V?$mersenne_twister_engine@I$0CA@$0CHA@$0BIN@$0BP@$0JJAILANP@$0L@$0PPPPPPPP@$06$0JNCMFGIA@$0P@$0OPMGAAAA@$0BC@$0GMAHIJGF@@std@@@?$uniform_int@H@std@@AEBAHAEAV?$mersenne_twister_engine@I$0CA@$0CHA@$0BIN@$0BP@$0JJAILANP@$0L@$0PPPPPPPP@$06$0JNCMFGIA@$0P@$0OPMGAAAA@$0BC@$0GMAHIJGF@@1@HH@Z PROC ; std::uniform_int<int>::_Eval<std::mersenne_twister_engine<unsigned int,32,624,397,31,2567483615,11,4294967295,7,2636928640,15,4022730752,18,1812433253> >, COMDAT
; File C:\Program Files\Microsoft Visual Studio\2022\Community\VC\Tools\MSVC\14.38.33130\include\random
; Line 1978
$LN5:
  00000	44 89 4c 24 20	 mov	 DWORD PTR [rsp+32], r9d
  00005	44 89 44 24 18	 mov	 DWORD PTR [rsp+24], r8d
  0000a	48 89 54 24 10	 mov	 QWORD PTR [rsp+16], rdx
  0000f	48 89 4c 24 08	 mov	 QWORD PTR [rsp+8], rcx
  00014	57		 push	 rdi
  00015	48 83 ec 40	 sub	 rsp, 64			; 00000040H
  00019	48 8d 7c 24 20	 lea	 rdi, QWORD PTR [rsp+32]
  0001e	b9 08 00 00 00	 mov	 ecx, 8
  00023	b8 cc cc cc cc	 mov	 eax, -858993460		; ccccccccH
  00028	f3 ab		 rep stosd
  0002a	48 8b 4c 24 50	 mov	 rcx, QWORD PTR [rsp+80]
; Line 1981
  0002f	48 8b 54 24 58	 mov	 rdx, QWORD PTR _Eng$[rsp]
  00034	48 8d 4c 24 28	 lea	 rcx, QWORD PTR _Generator$[rsp]
  00039	e8 00 00 00 00	 call	 ??0?$_Rng_from_urng_v2@IV?$mersenne_twister_engine@I$0CA@$0CHA@$0BIN@$0BP@$0JJAILANP@$0L@$0PPPPPPPP@$06$0JNCMFGIA@$0P@$0OPMGAAAA@$0BC@$0GMAHIJGF@@std@@@std@@QEAA@AEAV?$mersenne_twister_engine@I$0CA@$0CHA@$0BIN@$0BP@$0JJAILANP@$0L@$0PPPPPPPP@$06$0JNCMFGIA@$0P@$0OPMGAAAA@$0BC@$0GMAHIJGF@@1@@Z ; std::_Rng_from_urng_v2<unsigned int,std::mersenne_twister_engine<unsigned int,32,624,397,31,2567483615,11,4294967295,7,2636928640,15,4022730752,18,1812433253> >::_Rng_from_urng_v2<unsigned int,std::mersenne_twister_engine<unsigned int,32,624,397,31,2567483615,11,4294967295,7,2636928640,15,4022730752,18,1812433253> >
; Line 1983
  0003e	8b 4c 24 60	 mov	 ecx, DWORD PTR _Min$[rsp]
  00042	e8 00 00 00 00	 call	 ?_Adjust@?$uniform_int@H@std@@CAII@Z ; std::uniform_int<int>::_Adjust
  00047	89 44 24 34	 mov	 DWORD PTR _Umin$[rsp], eax
; Line 1984
  0004b	8b 4c 24 68	 mov	 ecx, DWORD PTR _Max$[rsp]
  0004f	e8 00 00 00 00	 call	 ?_Adjust@?$uniform_int@H@std@@CAII@Z ; std::uniform_int<int>::_Adjust
  00054	89 44 24 38	 mov	 DWORD PTR _Umax$[rsp], eax
; Line 1988
  00058	8b 44 24 34	 mov	 eax, DWORD PTR _Umin$[rsp]
  0005c	8b 4c 24 38	 mov	 ecx, DWORD PTR _Umax$[rsp]
  00060	2b c8		 sub	 ecx, eax
  00062	8b c1		 mov	 eax, ecx
  00064	83 f8 ff	 cmp	 eax, -1			; ffffffffH
  00067	75 10		 jne	 SHORT $LN2@Eval
; Line 1989
  00069	48 8d 4c 24 28	 lea	 rcx, QWORD PTR _Generator$[rsp]
  0006e	e8 00 00 00 00	 call	 ?_Get_all_bits@?$_Rng_from_urng_v2@IV?$mersenne_twister_engine@I$0CA@$0CHA@$0BIN@$0BP@$0JJAILANP@$0L@$0PPPPPPPP@$06$0JNCMFGIA@$0P@$0OPMGAAAA@$0BC@$0GMAHIJGF@@std@@@std@@QEAAIXZ ; std::_Rng_from_urng_v2<unsigned int,std::mersenne_twister_engine<unsigned int,32,624,397,31,2567483615,11,4294967295,7,2636928640,15,4022730752,18,1812433253> >::_Get_all_bits
  00073	89 44 24 3c	 mov	 DWORD PTR _Uret$[rsp], eax
; Line 1990
  00077	eb 1e		 jmp	 SHORT $LN3@Eval
$LN2@Eval:
; Line 1991
  00079	8b 44 24 34	 mov	 eax, DWORD PTR _Umin$[rsp]
  0007d	8b 4c 24 38	 mov	 ecx, DWORD PTR _Umax$[rsp]
  00081	2b c8		 sub	 ecx, eax
  00083	8b c1		 mov	 eax, ecx
  00085	ff c0		 inc	 eax
  00087	8b d0		 mov	 edx, eax
  00089	48 8d 4c 24 28	 lea	 rcx, QWORD PTR _Generator$[rsp]
  0008e	e8 00 00 00 00	 call	 ??R?$_Rng_from_urng_v2@IV?$mersenne_twister_engine@I$0CA@$0CHA@$0BIN@$0BP@$0JJAILANP@$0L@$0PPPPPPPP@$06$0JNCMFGIA@$0P@$0OPMGAAAA@$0BC@$0GMAHIJGF@@std@@@std@@QEAAII@Z ; std::_Rng_from_urng_v2<unsigned int,std::mersenne_twister_engine<unsigned int,32,624,397,31,2567483615,11,4294967295,7,2636928640,15,4022730752,18,1812433253> >::operator()
  00093	89 44 24 3c	 mov	 DWORD PTR _Uret$[rsp], eax
$LN3@Eval:
; Line 1994
  00097	8b 44 24 34	 mov	 eax, DWORD PTR _Umin$[rsp]
  0009b	8b 4c 24 3c	 mov	 ecx, DWORD PTR _Uret$[rsp]
  0009f	03 c8		 add	 ecx, eax
  000a1	8b c1		 mov	 eax, ecx
  000a3	8b c8		 mov	 ecx, eax
  000a5	e8 00 00 00 00	 call	 ?_Adjust@?$uniform_int@H@std@@CAII@Z ; std::uniform_int<int>::_Adjust
; Line 1995
  000aa	48 8b f8	 mov	 rdi, rax
  000ad	48 8b cc	 mov	 rcx, rsp
  000b0	48 8d 15 00 00
	00 00		 lea	 rdx, OFFSET FLAT:??$_Eval@V?$mersenne_twister_engine@I$0CA@$0CHA@$0BIN@$0BP@$0JJAILANP@$0L@$0PPPPPPPP@$06$0JNCMFGIA@$0P@$0OPMGAAAA@$0BC@$0GMAHIJGF@@std@@@?$uniform_int@H@std@@AEBAHAEAV?$mersenne_twister_engine@I$0CA@$0CHA@$0BIN@$0BP@$0JJAILANP@$0L@$0PPPPPPPP@$06$0JNCMFGIA@$0P@$0OPMGAAAA@$0BC@$0GMAHIJGF@@1@HH@Z$rtcFrameData
  000b7	e8 00 00 00 00	 call	 _RTC_CheckStackVars
  000bc	48 8b c7	 mov	 rax, rdi
  000bf	48 83 c4 40	 add	 rsp, 64			; 00000040H
  000c3	5f		 pop	 rdi
  000c4	c3		 ret	 0
??$_Eval@V?$mersenne_twister_engine@I$0CA@$0CHA@$0BIN@$0BP@$0JJAILANP@$0L@$0PPPPPPPP@$06$0JNCMFGIA@$0P@$0OPMGAAAA@$0BC@$0GMAHIJGF@@std@@@?$uniform_int@H@std@@AEBAHAEAV?$mersenne_twister_engine@I$0CA@$0CHA@$0BIN@$0BP@$0JJAILANP@$0L@$0PPPPPPPP@$06$0JNCMFGIA@$0P@$0OPMGAAAA@$0BC@$0GMAHIJGF@@1@HH@Z ENDP ; std::uniform_int<int>::_Eval<std::mersenne_twister_engine<unsigned int,32,624,397,31,2567483615,11,4294967295,7,2636928640,15,4022730752,18,1812433253> >
_TEXT	ENDS
; Function compile flags: /Odtp /RTCsu
;	COMDAT ??Bsentry@?$basic_ostream@DU?$char_traits@D@std@@@std@@QEBA_NXZ
_TEXT	SEGMENT
this$ = 16
??Bsentry@?$basic_ostream@DU?$char_traits@D@std@@@std@@QEBA_NXZ PROC ; std::basic_ostream<char,std::char_traits<char> >::sentry::operator bool, COMDAT
; File C:\Program Files\Microsoft Visual Studio\2022\Community\VC\Tools\MSVC\14.38.33130\include\ostream
; Line 128
$LN3:
  00000	48 89 4c 24 08	 mov	 QWORD PTR [rsp+8], rcx
  00005	57		 push	 rdi
; Line 129
  00006	48 8b 44 24 10	 mov	 rax, QWORD PTR this$[rsp]
  0000b	0f b6 40 08	 movzx	 eax, BYTE PTR [rax+8]
; Line 130
  0000f	5f		 pop	 rdi
  00010	c3		 ret	 0
??Bsentry@?$basic_ostream@DU?$char_traits@D@std@@@std@@QEBA_NXZ ENDP ; std::basic_ostream<char,std::char_traits<char> >::sentry::operator bool
_TEXT	ENDS
; Function compile flags: /Odtp /RTCsu
;	COMDAT ??1sentry@?$basic_ostream@DU?$char_traits@D@std@@@std@@QEAA@XZ
_TEXT	SEGMENT
_Zero_uncaught_exceptions$ = 32
tv71 = 33
this$ = 64
??1sentry@?$basic_ostream@DU?$char_traits@D@std@@@std@@QEAA@XZ PROC ; std::basic_ostream<char,std::char_traits<char> >::sentry::~sentry, COMDAT
; File C:\Program Files\Microsoft Visual Studio\2022\Community\VC\Tools\MSVC\14.38.33130\include\ostream
; Line 113
$LN6:
  00000	48 89 4c 24 08	 mov	 QWORD PTR [rsp+8], rcx
  00005	57		 push	 rdi
  00006	48 83 ec 30	 sub	 rsp, 48			; 00000030H
; Line 119
  0000a	e8 00 00 00 00	 call	 ?uncaught_exceptions@std@@YAHXZ ; std::uncaught_exceptions
  0000f	85 c0		 test	 eax, eax
  00011	75 07		 jne	 SHORT $LN4@sentry
  00013	c6 44 24 21 01	 mov	 BYTE PTR tv71[rsp], 1
  00018	eb 05		 jmp	 SHORT $LN5@sentry
$LN4@sentry:
  0001a	c6 44 24 21 00	 mov	 BYTE PTR tv71[rsp], 0
$LN5@sentry:
  0001f	0f b6 44 24 21	 movzx	 eax, BYTE PTR tv71[rsp]
  00024	88 44 24 20	 mov	 BYTE PTR _Zero_uncaught_exceptions$[rsp], al
; Line 122
  00028	0f b6 44 24 20	 movzx	 eax, BYTE PTR _Zero_uncaught_exceptions$[rsp]
  0002d	85 c0		 test	 eax, eax
  0002f	74 0e		 je	 SHORT $LN2@sentry
; Line 123
  00031	48 8b 44 24 40	 mov	 rax, QWORD PTR this$[rsp]
  00036	48 8b 08	 mov	 rcx, QWORD PTR [rax]
  00039	ff 15 00 00 00
	00		 call	 QWORD PTR __imp_?_Osfx@?$basic_ostream@DU?$char_traits@D@std@@@std@@QEAAXXZ
$LN2@sentry:
; Line 125
  0003f	48 8b 4c 24 40	 mov	 rcx, QWORD PTR this$[rsp]
  00044	e8 00 00 00 00	 call	 ??1_Sentry_base@?$basic_ostream@DU?$char_traits@D@std@@@std@@QEAA@XZ ; std::basic_ostream<char,std::char_traits<char> >::_Sentry_base::~_Sentry_base
  00049	48 83 c4 30	 add	 rsp, 48			; 00000030H
  0004d	5f		 pop	 rdi
  0004e	c3		 ret	 0
??1sentry@?$basic_ostream@DU?$char_traits@D@std@@@std@@QEAA@XZ ENDP ; std::basic_ostream<char,std::char_traits<char> >::sentry::~sentry
_TEXT	ENDS
; Function compile flags: /Odtp /RTCsu
;	COMDAT ??0sentry@?$basic_ostream@DU?$char_traits@D@std@@@std@@QEAA@AEAV12@@Z
_TEXT	SEGMENT
_Tied$ = 32
this$ = 64
_Ostr$ = 72
??0sentry@?$basic_ostream@DU?$char_traits@D@std@@@std@@QEAA@AEAV12@@Z PROC ; std::basic_ostream<char,std::char_traits<char> >::sentry::sentry, COMDAT
; File C:\Program Files\Microsoft Visual Studio\2022\Community\VC\Tools\MSVC\14.38.33130\include\ostream
; Line 96
$LN7:
  00000	48 89 54 24 10	 mov	 QWORD PTR [rsp+16], rdx
  00005	48 89 4c 24 08	 mov	 QWORD PTR [rsp+8], rcx
  0000a	57		 push	 rdi
  0000b	48 83 ec 30	 sub	 rsp, 48			; 00000030H
  0000f	48 8b 54 24 48	 mov	 rdx, QWORD PTR _Ostr$[rsp]
  00014	48 8b 4c 24 40	 mov	 rcx, QWORD PTR this$[rsp]
  00019	e8 00 00 00 00	 call	 ??0_Sentry_base@?$basic_ostream@DU?$char_traits@D@std@@@std@@QEAA@AEAV12@@Z ; std::basic_ostream<char,std::char_traits<char> >::_Sentry_base::_Sentry_base
  0001e	90		 npad	 1
; Line 97
  0001f	48 8b 44 24 48	 mov	 rax, QWORD PTR _Ostr$[rsp]
  00024	48 8b 00	 mov	 rax, QWORD PTR [rax]
  00027	48 63 40 04	 movsxd	 rax, DWORD PTR [rax+4]
  0002b	48 8b 4c 24 48	 mov	 rcx, QWORD PTR _Ostr$[rsp]
  00030	48 03 c8	 add	 rcx, rax
  00033	48 8b c1	 mov	 rax, rcx
  00036	48 8b c8	 mov	 rcx, rax
  00039	ff 15 00 00 00
	00		 call	 QWORD PTR __imp_?good@ios_base@std@@QEBA_NXZ
  0003f	0f b6 c0	 movzx	 eax, al
  00042	85 c0		 test	 eax, eax
  00044	75 0b		 jne	 SHORT $LN2@sentry
; Line 98
  00046	48 8b 44 24 40	 mov	 rax, QWORD PTR this$[rsp]
  0004b	c6 40 08 00	 mov	 BYTE PTR [rax+8], 0
; Line 99
  0004f	eb 77		 jmp	 SHORT $LN1@sentry
$LN2@sentry:
; Line 102
  00051	48 8b 44 24 48	 mov	 rax, QWORD PTR _Ostr$[rsp]
  00056	48 8b 00	 mov	 rax, QWORD PTR [rax]
  00059	48 63 40 04	 movsxd	 rax, DWORD PTR [rax+4]
  0005d	48 8b 4c 24 48	 mov	 rcx, QWORD PTR _Ostr$[rsp]
  00062	48 03 c8	 add	 rcx, rax
  00065	48 8b c1	 mov	 rax, rcx
  00068	48 8b c8	 mov	 rcx, rax
  0006b	ff 15 00 00 00
	00		 call	 QWORD PTR __imp_?tie@?$basic_ios@DU?$char_traits@D@std@@@std@@QEBAPEAV?$basic_ostream@DU?$char_traits@D@std@@@2@XZ
  00071	48 89 44 24 20	 mov	 QWORD PTR _Tied$[rsp], rax
; Line 103
  00076	48 83 7c 24 20
	00		 cmp	 QWORD PTR _Tied$[rsp], 0
  0007c	74 0c		 je	 SHORT $LN4@sentry
  0007e	48 8b 44 24 48	 mov	 rax, QWORD PTR _Ostr$[rsp]
  00083	48 39 44 24 20	 cmp	 QWORD PTR _Tied$[rsp], rax
  00088	75 0b		 jne	 SHORT $LN3@sentry
$LN4@sentry:
; Line 104
  0008a	48 8b 44 24 40	 mov	 rax, QWORD PTR this$[rsp]
  0008f	c6 40 08 01	 mov	 BYTE PTR [rax+8], 1
; Line 105
  00093	eb 33		 jmp	 SHORT $LN1@sentry
$LN3@sentry:
; Line 108
  00095	48 8b 4c 24 20	 mov	 rcx, QWORD PTR _Tied$[rsp]
  0009a	ff 15 00 00 00
	00		 call	 QWORD PTR __imp_?flush@?$basic_ostream@DU?$char_traits@D@std@@@std@@QEAAAEAV12@XZ
; Line 109
  000a0	48 8b 44 24 48	 mov	 rax, QWORD PTR _Ostr$[rsp]
  000a5	48 8b 00	 mov	 rax, QWORD PTR [rax]
  000a8	48 63 40 04	 movsxd	 rax, DWORD PTR [rax+4]
  000ac	48 8b 4c 24 48	 mov	 rcx, QWORD PTR _Ostr$[rsp]
  000b1	48 03 c8	 add	 rcx, rax
  000b4	48 8b c1	 mov	 rax, rcx
  000b7	48 8b c8	 mov	 rcx, rax
  000ba	ff 15 00 00 00
	00		 call	 QWORD PTR __imp_?good@ios_base@std@@QEBA_NXZ
  000c0	48 8b 4c 24 40	 mov	 rcx, QWORD PTR this$[rsp]
  000c5	88 41 08	 mov	 BYTE PTR [rcx+8], al
$LN1@sentry:
; Line 110
  000c8	48 8b 44 24 40	 mov	 rax, QWORD PTR this$[rsp]
  000cd	48 83 c4 30	 add	 rsp, 48			; 00000030H
  000d1	5f		 pop	 rdi
  000d2	c3		 ret	 0
??0sentry@?$basic_ostream@DU?$char_traits@D@std@@@std@@QEAA@AEAV12@@Z ENDP ; std::basic_ostream<char,std::char_traits<char> >::sentry::sentry
_TEXT	ENDS
; Function compile flags: /Odtp /RTCsu
;	COMDAT text$x
text$x	SEGMENT
_Tied$ = 32
this$ = 64
_Ostr$ = 72
?dtor$0@?0???0sentry@?$basic_ostream@DU?$char_traits@D@std@@@std@@QEAA@AEAV12@@Z@4HA PROC ; `std::basic_ostream<char,std::char_traits<char> >::sentry::sentry'::`1'::dtor$0
  00000	48 89 4c 24 08	 mov	 QWORD PTR [rsp+8], rcx
  00005	48 89 54 24 10	 mov	 QWORD PTR [rsp+16], rdx
  0000a	55		 push	 rbp
  0000b	57		 push	 rdi
  0000c	48 83 ec 28	 sub	 rsp, 40			; 00000028H
  00010	48 8b ea	 mov	 rbp, rdx
  00013	48 8b 4d 40	 mov	 rcx, QWORD PTR this$[rbp]
  00017	e8 00 00 00 00	 call	 ??1_Sentry_base@?$basic_ostream@DU?$char_traits@D@std@@@std@@QEAA@XZ ; std::basic_ostream<char,std::char_traits<char> >::_Sentry_base::~_Sentry_base
  0001c	48 83 c4 28	 add	 rsp, 40			; 00000028H
  00020	5f		 pop	 rdi
  00021	5d		 pop	 rbp
  00022	c3		 ret	 0
?dtor$0@?0???0sentry@?$basic_ostream@DU?$char_traits@D@std@@@std@@QEAA@AEAV12@@Z@4HA ENDP ; `std::basic_ostream<char,std::char_traits<char> >::sentry::sentry'::`1'::dtor$0
text$x	ENDS
; Function compile flags: /Odtp /RTCsu
;	COMDAT ??1_Sentry_base@?$basic_ostream@DU?$char_traits@D@std@@@std@@QEAA@XZ
_TEXT	SEGMENT
_Rdbuf$ = 32
tv72 = 40
this$ = 64
??1_Sentry_base@?$basic_ostream@DU?$char_traits@D@std@@@std@@QEAA@XZ PROC ; std::basic_ostream<char,std::char_traits<char> >::_Sentry_base::~_Sentry_base, COMDAT
; File C:\Program Files\Microsoft Visual Studio\2022\Community\VC\Tools\MSVC\14.38.33130\include\ostream
; Line 82
$LN4:
  00000	48 89 4c 24 08	 mov	 QWORD PTR [rsp+8], rcx
  00005	57		 push	 rdi
  00006	48 83 ec 30	 sub	 rsp, 48			; 00000030H
; Line 83
  0000a	48 8b 44 24 40	 mov	 rax, QWORD PTR this$[rsp]
  0000f	48 8b 00	 mov	 rax, QWORD PTR [rax]
  00012	48 89 44 24 28	 mov	 QWORD PTR tv72[rsp], rax
  00017	48 8b 44 24 28	 mov	 rax, QWORD PTR tv72[rsp]
  0001c	48 8b 00	 mov	 rax, QWORD PTR [rax]
  0001f	48 63 40 04	 movsxd	 rax, DWORD PTR [rax+4]
  00023	48 8b 4c 24 28	 mov	 rcx, QWORD PTR tv72[rsp]
  00028	48 03 c8	 add	 rcx, rax
  0002b	48 8b c1	 mov	 rax, rcx
  0002e	48 8b c8	 mov	 rcx, rax
  00031	ff 15 00 00 00
	00		 call	 QWORD PTR __imp_?rdbuf@?$basic_ios@DU?$char_traits@D@std@@@std@@QEBAPEAV?$basic_streambuf@DU?$char_traits@D@std@@@2@XZ
  00037	48 89 44 24 20	 mov	 QWORD PTR _Rdbuf$[rsp], rax
; Line 84
  0003c	48 83 7c 24 20
	00		 cmp	 QWORD PTR _Rdbuf$[rsp], 0
  00042	74 11		 je	 SHORT $LN2@Sentry_bas
; Line 85
  00044	48 8b 44 24 20	 mov	 rax, QWORD PTR _Rdbuf$[rsp]
  00049	48 8b 00	 mov	 rax, QWORD PTR [rax]
  0004c	48 8b 4c 24 20	 mov	 rcx, QWORD PTR _Rdbuf$[rsp]
  00051	ff 50 10	 call	 QWORD PTR [rax+16]
  00054	90		 npad	 1
$LN2@Sentry_bas:
; Line 87
  00055	48 83 c4 30	 add	 rsp, 48			; 00000030H
  00059	5f		 pop	 rdi
  0005a	c3		 ret	 0
??1_Sentry_base@?$basic_ostream@DU?$char_traits@D@std@@@std@@QEAA@XZ ENDP ; std::basic_ostream<char,std::char_traits<char> >::_Sentry_base::~_Sentry_base
_TEXT	ENDS
; Function compile flags: /Odtp /RTCsu
;	COMDAT ??0_Sentry_base@?$basic_ostream@DU?$char_traits@D@std@@@std@@QEAA@AEAV12@@Z
_TEXT	SEGMENT
_Rdbuf$ = 32
tv73 = 40
this$ = 64
_Ostr$ = 72
??0_Sentry_base@?$basic_ostream@DU?$char_traits@D@std@@@std@@QEAA@AEAV12@@Z PROC ; std::basic_ostream<char,std::char_traits<char> >::_Sentry_base::_Sentry_base, COMDAT
; File C:\Program Files\Microsoft Visual Studio\2022\Community\VC\Tools\MSVC\14.38.33130\include\ostream
; Line 75
$LN4:
  00000	48 89 54 24 10	 mov	 QWORD PTR [rsp+16], rdx
  00005	48 89 4c 24 08	 mov	 QWORD PTR [rsp+8], rcx
  0000a	57		 push	 rdi
  0000b	48 83 ec 30	 sub	 rsp, 48			; 00000030H
  0000f	48 8b 44 24 40	 mov	 rax, QWORD PTR this$[rsp]
  00014	48 8b 4c 24 48	 mov	 rcx, QWORD PTR _Ostr$[rsp]
  00019	48 89 08	 mov	 QWORD PTR [rax], rcx
; Line 76
  0001c	48 8b 44 24 40	 mov	 rax, QWORD PTR this$[rsp]
  00021	48 8b 00	 mov	 rax, QWORD PTR [rax]
  00024	48 89 44 24 28	 mov	 QWORD PTR tv73[rsp], rax
  00029	48 8b 44 24 28	 mov	 rax, QWORD PTR tv73[rsp]
  0002e	48 8b 00	 mov	 rax, QWORD PTR [rax]
  00031	48 63 40 04	 movsxd	 rax, DWORD PTR [rax+4]
  00035	48 8b 4c 24 28	 mov	 rcx, QWORD PTR tv73[rsp]
  0003a	48 03 c8	 add	 rcx, rax
  0003d	48 8b c1	 mov	 rax, rcx
  00040	48 8b c8	 mov	 rcx, rax
  00043	ff 15 00 00 00
	00		 call	 QWORD PTR __imp_?rdbuf@?$basic_ios@DU?$char_traits@D@std@@@std@@QEBAPEAV?$basic_streambuf@DU?$char_traits@D@std@@@2@XZ
  00049	48 89 44 24 20	 mov	 QWORD PTR _Rdbuf$[rsp], rax
; Line 77
  0004e	48 83 7c 24 20
	00		 cmp	 QWORD PTR _Rdbuf$[rsp], 0
  00054	74 10		 je	 SHORT $LN2@Sentry_bas
; Line 78
  00056	48 8b 44 24 20	 mov	 rax, QWORD PTR _Rdbuf$[rsp]
  0005b	48 8b 00	 mov	 rax, QWORD PTR [rax]
  0005e	48 8b 4c 24 20	 mov	 rcx, QWORD PTR _Rdbuf$[rsp]
  00063	ff 50 08	 call	 QWORD PTR [rax+8]
$LN2@Sentry_bas:
; Line 80
  00066	48 8b 44 24 40	 mov	 rax, QWORD PTR this$[rsp]
  0006b	48 83 c4 30	 add	 rsp, 48			; 00000030H
  0006f	5f		 pop	 rdi
  00070	c3		 ret	 0
??0_Sentry_base@?$basic_ostream@DU?$char_traits@D@std@@@std@@QEAA@AEAV12@@Z ENDP ; std::basic_ostream<char,std::char_traits<char> >::_Sentry_base::_Sentry_base
_TEXT	ENDS
; Function compile flags: /Odtp /RTCsu
;	COMDAT ??$endl@DU?$char_traits@D@std@@@std@@YAAEAV?$basic_ostream@DU?$char_traits@D@std@@@0@AEAV10@@Z
_TEXT	SEGMENT
tv80 = 32
_Ostr$ = 64
??$endl@DU?$char_traits@D@std@@@std@@YAAEAV?$basic_ostream@DU?$char_traits@D@std@@@0@AEAV10@@Z PROC ; std::endl<char,std::char_traits<char> >, COMDAT
; File C:\Program Files\Microsoft Visual Studio\2022\Community\VC\Tools\MSVC\14.38.33130\include\ostream
; Line 1010
$LN3:
  00000	48 89 4c 24 08	 mov	 QWORD PTR [rsp+8], rcx
  00005	57		 push	 rdi
  00006	48 83 ec 30	 sub	 rsp, 48			; 00000030H
; Line 1011
  0000a	48 8b 44 24 40	 mov	 rax, QWORD PTR _Ostr$[rsp]
  0000f	48 8b 00	 mov	 rax, QWORD PTR [rax]
  00012	48 63 40 04	 movsxd	 rax, DWORD PTR [rax+4]
  00016	48 8b 4c 24 40	 mov	 rcx, QWORD PTR _Ostr$[rsp]
  0001b	48 03 c8	 add	 rcx, rax
  0001e	48 8b c1	 mov	 rax, rcx
  00021	48 89 44 24 20	 mov	 QWORD PTR tv80[rsp], rax
  00026	b2 0a		 mov	 dl, 10
  00028	48 8b 4c 24 20	 mov	 rcx, QWORD PTR tv80[rsp]
  0002d	ff 15 00 00 00
	00		 call	 QWORD PTR __imp_?widen@?$basic_ios@DU?$char_traits@D@std@@@std@@QEBADD@Z
  00033	0f b6 d0	 movzx	 edx, al
  00036	48 8b 4c 24 40	 mov	 rcx, QWORD PTR _Ostr$[rsp]
  0003b	ff 15 00 00 00
	00		 call	 QWORD PTR __imp_?put@?$basic_ostream@DU?$char_traits@D@std@@@std@@QEAAAEAV12@D@Z
; Line 1012
  00041	48 8b 4c 24 40	 mov	 rcx, QWORD PTR _Ostr$[rsp]
  00046	ff 15 00 00 00
	00		 call	 QWORD PTR __imp_?flush@?$basic_ostream@DU?$char_traits@D@std@@@std@@QEAAAEAV12@XZ
; Line 1013
  0004c	48 8b 44 24 40	 mov	 rax, QWORD PTR _Ostr$[rsp]
; Line 1014
  00051	48 83 c4 30	 add	 rsp, 48			; 00000030H
  00055	5f		 pop	 rdi
  00056	c3		 ret	 0
??$endl@DU?$char_traits@D@std@@@std@@YAAEAV?$basic_ostream@DU?$char_traits@D@std@@@0@AEAV10@@Z ENDP ; std::endl<char,std::char_traits<char> >
_TEXT	ENDS
; Function compile flags: /Odtp /RTCsu
;	COMDAT ??$?6U?$char_traits@D@std@@@std@@YAAEAV?$basic_ostream@DU?$char_traits@D@std@@@0@AEAV10@PEBD@Z
_TEXT	SEGMENT
_State$ = 32
_Count$ = 40
_Pad$ = 48
_Ok$ = 72
$T4 = 104
tv137 = 112
tv194 = 120
tv192 = 128
tv139 = 132
tv201 = 136
tv199 = 140
tv223 = 144
tv318 = 152
tv260 = 160
tv258 = 168
tv319 = 172
tv267 = 176
tv265 = 180
tv285 = 184
tv299 = 192
tv314 = 200
_Ostr$ = 224
_Val$ = 232
??$?6U?$char_traits@D@std@@@std@@YAAEAV?$basic_ostream@DU?$char_traits@D@std@@@0@AEAV10@PEBD@Z PROC ; std::operator<<<std::char_traits<char> >, COMDAT
; File C:\Program Files\Microsoft Visual Studio\2022\Community\VC\Tools\MSVC\14.38.33130\include\ostream
; Line 766
$LN25:
  00000	48 89 54 24 10	 mov	 QWORD PTR [rsp+16], rdx
  00005	48 89 4c 24 08	 mov	 QWORD PTR [rsp+8], rcx
  0000a	57		 push	 rdi
  0000b	48 81 ec d0 00
	00 00		 sub	 rsp, 208		; 000000d0H
  00012	48 8d 7c 24 20	 lea	 rdi, QWORD PTR [rsp+32]
  00017	b9 2c 00 00 00	 mov	 ecx, 44			; 0000002cH
  0001c	b8 cc cc cc cc	 mov	 eax, -858993460		; ccccccccH
  00021	f3 ab		 rep stosd
  00023	48 8b 8c 24 e0
	00 00 00	 mov	 rcx, QWORD PTR [rsp+224]
; Line 771
  0002b	c7 44 24 20 00
	00 00 00	 mov	 DWORD PTR _State$[rsp], 0
; Line 772
  00033	48 8b 8c 24 e8
	00 00 00	 mov	 rcx, QWORD PTR _Val$[rsp]
  0003b	e8 00 00 00 00	 call	 ?length@?$_Narrow_char_traits@DH@std@@SA_KQEBD@Z ; std::_Narrow_char_traits<char,int>::length
  00040	48 89 44 24 28	 mov	 QWORD PTR _Count$[rsp], rax
; Line 773
  00045	48 8b 84 24 e0
	00 00 00	 mov	 rax, QWORD PTR _Ostr$[rsp]
  0004d	48 8b 00	 mov	 rax, QWORD PTR [rax]
  00050	48 63 40 04	 movsxd	 rax, DWORD PTR [rax+4]
  00054	48 8b 8c 24 e0
	00 00 00	 mov	 rcx, QWORD PTR _Ostr$[rsp]
  0005c	48 03 c8	 add	 rcx, rax
  0005f	48 8b c1	 mov	 rax, rcx
  00062	48 8b c8	 mov	 rcx, rax
  00065	ff 15 00 00 00
	00		 call	 QWORD PTR __imp_?width@ios_base@std@@QEBA_JXZ
  0006b	48 85 c0	 test	 rax, rax
  0006e	7e 5f		 jle	 SHORT $LN17@operator
  00070	48 8b 84 24 e0
	00 00 00	 mov	 rax, QWORD PTR _Ostr$[rsp]
  00078	48 8b 00	 mov	 rax, QWORD PTR [rax]
  0007b	48 63 40 04	 movsxd	 rax, DWORD PTR [rax+4]
  0007f	48 8b 8c 24 e0
	00 00 00	 mov	 rcx, QWORD PTR _Ostr$[rsp]
  00087	48 03 c8	 add	 rcx, rax
  0008a	48 8b c1	 mov	 rax, rcx
  0008d	48 8b c8	 mov	 rcx, rax
  00090	ff 15 00 00 00
	00		 call	 QWORD PTR __imp_?width@ios_base@std@@QEBA_JXZ
  00096	48 3b 44 24 28	 cmp	 rax, QWORD PTR _Count$[rsp]
  0009b	7e 32		 jle	 SHORT $LN17@operator
  0009d	48 8b 84 24 e0
	00 00 00	 mov	 rax, QWORD PTR _Ostr$[rsp]
  000a5	48 8b 00	 mov	 rax, QWORD PTR [rax]
  000a8	48 63 40 04	 movsxd	 rax, DWORD PTR [rax+4]
  000ac	48 8b 8c 24 e0
	00 00 00	 mov	 rcx, QWORD PTR _Ostr$[rsp]
  000b4	48 03 c8	 add	 rcx, rax
  000b7	48 8b c1	 mov	 rax, rcx
  000ba	48 8b c8	 mov	 rcx, rax
  000bd	ff 15 00 00 00
	00		 call	 QWORD PTR __imp_?width@ios_base@std@@QEBA_JXZ
  000c3	48 2b 44 24 28	 sub	 rax, QWORD PTR _Count$[rsp]
  000c8	48 89 44 24 70	 mov	 QWORD PTR tv137[rsp], rax
  000cd	eb 09		 jmp	 SHORT $LN18@operator
$LN17@operator:
  000cf	48 c7 44 24 70
	00 00 00 00	 mov	 QWORD PTR tv137[rsp], 0
$LN18@operator:
  000d8	48 8b 44 24 70	 mov	 rax, QWORD PTR tv137[rsp]
  000dd	48 89 44 24 30	 mov	 QWORD PTR _Pad$[rsp], rax
; Line 774
  000e2	48 8b 94 24 e0
	00 00 00	 mov	 rdx, QWORD PTR _Ostr$[rsp]
  000ea	48 8d 4c 24 48	 lea	 rcx, QWORD PTR _Ok$[rsp]
  000ef	e8 00 00 00 00	 call	 ??0sentry@?$basic_ostream@DU?$char_traits@D@std@@@std@@QEAA@AEAV12@@Z ; std::basic_ostream<char,std::char_traits<char> >::sentry::sentry
  000f4	90		 npad	 1
; Line 776
  000f5	48 8d 4c 24 48	 lea	 rcx, QWORD PTR _Ok$[rsp]
  000fa	e8 00 00 00 00	 call	 ??Bsentry@?$basic_ostream@DU?$char_traits@D@std@@@std@@QEBA_NXZ ; std::basic_ostream<char,std::char_traits<char> >::sentry::operator bool
  000ff	0f b6 c0	 movzx	 eax, al
  00102	85 c0		 test	 eax, eax
  00104	75 10		 jne	 SHORT $LN8@operator
; Line 777
  00106	8b 44 24 20	 mov	 eax, DWORD PTR _State$[rsp]
  0010a	83 c8 04	 or	 eax, 4
  0010d	89 44 24 20	 mov	 DWORD PTR _State$[rsp], eax
; Line 778
  00111	e9 95 02 00 00	 jmp	 $LN9@operator
$LN8@operator:
; Line 780
  00116	48 8b 84 24 e0
	00 00 00	 mov	 rax, QWORD PTR _Ostr$[rsp]
  0011e	48 8b 00	 mov	 rax, QWORD PTR [rax]
  00121	48 63 40 04	 movsxd	 rax, DWORD PTR [rax+4]
  00125	48 8b 8c 24 e0
	00 00 00	 mov	 rcx, QWORD PTR _Ostr$[rsp]
  0012d	48 03 c8	 add	 rcx, rax
  00130	48 8b c1	 mov	 rax, rcx
  00133	48 8b c8	 mov	 rcx, rax
  00136	ff 15 00 00 00
	00		 call	 QWORD PTR __imp_?flags@ios_base@std@@QEBAHXZ
  0013c	25 c0 01 00 00	 and	 eax, 448		; 000001c0H
  00141	83 f8 40	 cmp	 eax, 64			; 00000040H
  00144	0f 84 d3 00 00
	00		 je	 $LN11@operator
; Line 781
  0014a	eb 0d		 jmp	 SHORT $LN4@operator
$LN2@operator:
  0014c	48 8b 44 24 30	 mov	 rax, QWORD PTR _Pad$[rsp]
  00151	48 ff c8	 dec	 rax
  00154	48 89 44 24 30	 mov	 QWORD PTR _Pad$[rsp], rax
$LN4@operator:
  00159	48 83 7c 24 30
	00		 cmp	 QWORD PTR _Pad$[rsp], 0
  0015f	0f 8e b8 00 00
	00		 jle	 $LN11@operator
; Line 782
  00165	48 8b 84 24 e0
	00 00 00	 mov	 rax, QWORD PTR _Ostr$[rsp]
  0016d	48 8b 00	 mov	 rax, QWORD PTR [rax]
  00170	48 63 40 04	 movsxd	 rax, DWORD PTR [rax+4]
  00174	48 8b 8c 24 e0
	00 00 00	 mov	 rcx, QWORD PTR _Ostr$[rsp]
  0017c	48 03 c8	 add	 rcx, rax
  0017f	48 8b c1	 mov	 rax, rcx
  00182	48 8b c8	 mov	 rcx, rax
  00185	ff 15 00 00 00
	00		 call	 QWORD PTR __imp_?rdbuf@?$basic_ios@DU?$char_traits@D@std@@@std@@QEBAPEAV?$basic_streambuf@DU?$char_traits@D@std@@@2@XZ
  0018b	48 89 44 24 78	 mov	 QWORD PTR tv194[rsp], rax
  00190	48 8b 84 24 e0
	00 00 00	 mov	 rax, QWORD PTR _Ostr$[rsp]
  00198	48 8b 00	 mov	 rax, QWORD PTR [rax]
  0019b	48 63 40 04	 movsxd	 rax, DWORD PTR [rax+4]
  0019f	48 8b 8c 24 e0
	00 00 00	 mov	 rcx, QWORD PTR _Ostr$[rsp]
  001a7	48 03 c8	 add	 rcx, rax
  001aa	48 8b c1	 mov	 rax, rcx
  001ad	48 8b c8	 mov	 rcx, rax
  001b0	ff 15 00 00 00
	00		 call	 QWORD PTR __imp_?fill@?$basic_ios@DU?$char_traits@D@std@@@std@@QEBADXZ
  001b6	88 84 24 80 00
	00 00		 mov	 BYTE PTR tv192[rsp], al
  001bd	0f b6 94 24 80
	00 00 00	 movzx	 edx, BYTE PTR tv192[rsp]
  001c5	48 8b 4c 24 78	 mov	 rcx, QWORD PTR tv194[rsp]
  001ca	ff 15 00 00 00
	00		 call	 QWORD PTR __imp_?sputc@?$basic_streambuf@DU?$char_traits@D@std@@@std@@QEAAHD@Z
  001d0	89 84 24 84 00
	00 00		 mov	 DWORD PTR tv139[rsp], eax
  001d7	8b 84 24 84 00
	00 00		 mov	 eax, DWORD PTR tv139[rsp]
  001de	89 84 24 88 00
	00 00		 mov	 DWORD PTR tv201[rsp], eax
  001e5	e8 00 00 00 00	 call	 ?eof@?$_Narrow_char_traits@DH@std@@SAHXZ ; std::_Narrow_char_traits<char,int>::eof
  001ea	89 84 24 8c 00
	00 00		 mov	 DWORD PTR tv199[rsp], eax
  001f1	8b 94 24 88 00
	00 00		 mov	 edx, DWORD PTR tv201[rsp]
  001f8	8b 8c 24 8c 00
	00 00		 mov	 ecx, DWORD PTR tv199[rsp]
  001ff	e8 00 00 00 00	 call	 ?eq_int_type@?$_Narrow_char_traits@DH@std@@SA_NHH@Z ; std::_Narrow_char_traits<char,int>::eq_int_type
  00204	0f b6 c0	 movzx	 eax, al
  00207	85 c0		 test	 eax, eax
  00209	74 0d		 je	 SHORT $LN12@operator
; Line 783
  0020b	8b 44 24 20	 mov	 eax, DWORD PTR _State$[rsp]
  0020f	83 c8 04	 or	 eax, 4
  00212	89 44 24 20	 mov	 DWORD PTR _State$[rsp], eax
; Line 784
  00216	eb 05		 jmp	 SHORT $LN11@operator
$LN12@operator:
; Line 786
  00218	e9 2f ff ff ff	 jmp	 $LN2@operator
$LN11@operator:
; Line 789
  0021d	83 7c 24 20 00	 cmp	 DWORD PTR _State$[rsp], 0
  00222	75 6b		 jne	 SHORT $LN13@operator
  00224	48 8b 84 24 e0
	00 00 00	 mov	 rax, QWORD PTR _Ostr$[rsp]
  0022c	48 8b 00	 mov	 rax, QWORD PTR [rax]
  0022f	48 63 40 04	 movsxd	 rax, DWORD PTR [rax+4]
  00233	48 8b 8c 24 e0
	00 00 00	 mov	 rcx, QWORD PTR _Ostr$[rsp]
  0023b	48 03 c8	 add	 rcx, rax
  0023e	48 8b c1	 mov	 rax, rcx
  00241	48 8b c8	 mov	 rcx, rax
  00244	ff 15 00 00 00
	00		 call	 QWORD PTR __imp_?rdbuf@?$basic_ios@DU?$char_traits@D@std@@@std@@QEBAPEAV?$basic_streambuf@DU?$char_traits@D@std@@@2@XZ
  0024a	48 89 84 24 90
	00 00 00	 mov	 QWORD PTR tv223[rsp], rax
  00252	4c 8b 44 24 28	 mov	 r8, QWORD PTR _Count$[rsp]
  00257	48 8b 94 24 e8
	00 00 00	 mov	 rdx, QWORD PTR _Val$[rsp]
  0025f	48 8b 8c 24 90
	00 00 00	 mov	 rcx, QWORD PTR tv223[rsp]
  00267	ff 15 00 00 00
	00		 call	 QWORD PTR __imp_?sputn@?$basic_streambuf@DU?$char_traits@D@std@@@std@@QEAA_JPEBD_J@Z
  0026d	48 89 84 24 98
	00 00 00	 mov	 QWORD PTR tv318[rsp], rax
  00275	48 8b 44 24 28	 mov	 rax, QWORD PTR _Count$[rsp]
  0027a	48 39 84 24 98
	00 00 00	 cmp	 QWORD PTR tv318[rsp], rax
  00282	74 0b		 je	 SHORT $LN13@operator
; Line 790
  00284	8b 44 24 20	 mov	 eax, DWORD PTR _State$[rsp]
  00288	83 c8 04	 or	 eax, 4
  0028b	89 44 24 20	 mov	 DWORD PTR _State$[rsp], eax
$LN13@operator:
; Line 793
  0028f	83 7c 24 20 00	 cmp	 DWORD PTR _State$[rsp], 0
  00294	0f 85 d9 00 00
	00		 jne	 $LN14@operator
; Line 794
  0029a	eb 0d		 jmp	 SHORT $LN7@operator
$LN5@operator:
  0029c	48 8b 44 24 30	 mov	 rax, QWORD PTR _Pad$[rsp]
  002a1	48 ff c8	 dec	 rax
  002a4	48 89 44 24 30	 mov	 QWORD PTR _Pad$[rsp], rax
$LN7@operator:
  002a9	48 83 7c 24 30
	00		 cmp	 QWORD PTR _Pad$[rsp], 0
  002af	0f 8e be 00 00
	00		 jle	 $LN14@operator
; Line 795
  002b5	48 8b 84 24 e0
	00 00 00	 mov	 rax, QWORD PTR _Ostr$[rsp]
  002bd	48 8b 00	 mov	 rax, QWORD PTR [rax]
  002c0	48 63 40 04	 movsxd	 rax, DWORD PTR [rax+4]
  002c4	48 8b 8c 24 e0
	00 00 00	 mov	 rcx, QWORD PTR _Ostr$[rsp]
  002cc	48 03 c8	 add	 rcx, rax
  002cf	48 8b c1	 mov	 rax, rcx
  002d2	48 8b c8	 mov	 rcx, rax
  002d5	ff 15 00 00 00
	00		 call	 QWORD PTR __imp_?rdbuf@?$basic_ios@DU?$char_traits@D@std@@@std@@QEBAPEAV?$basic_streambuf@DU?$char_traits@D@std@@@2@XZ
  002db	48 89 84 24 a0
	00 00 00	 mov	 QWORD PTR tv260[rsp], rax
  002e3	48 8b 84 24 e0
	00 00 00	 mov	 rax, QWORD PTR _Ostr$[rsp]
  002eb	48 8b 00	 mov	 rax, QWORD PTR [rax]
  002ee	48 63 40 04	 movsxd	 rax, DWORD PTR [rax+4]
  002f2	48 8b 8c 24 e0
	00 00 00	 mov	 rcx, QWORD PTR _Ostr$[rsp]
  002fa	48 03 c8	 add	 rcx, rax
  002fd	48 8b c1	 mov	 rax, rcx
  00300	48 8b c8	 mov	 rcx, rax
  00303	ff 15 00 00 00
	00		 call	 QWORD PTR __imp_?fill@?$basic_ios@DU?$char_traits@D@std@@@std@@QEBADXZ
  00309	88 84 24 a8 00
	00 00		 mov	 BYTE PTR tv258[rsp], al
  00310	0f b6 94 24 a8
	00 00 00	 movzx	 edx, BYTE PTR tv258[rsp]
  00318	48 8b 8c 24 a0
	00 00 00	 mov	 rcx, QWORD PTR tv260[rsp]
  00320	ff 15 00 00 00
	00		 call	 QWORD PTR __imp_?sputc@?$basic_streambuf@DU?$char_traits@D@std@@@std@@QEAAHD@Z
  00326	89 84 24 ac 00
	00 00		 mov	 DWORD PTR tv319[rsp], eax
  0032d	8b 84 24 ac 00
	00 00		 mov	 eax, DWORD PTR tv319[rsp]
  00334	89 84 24 b0 00
	00 00		 mov	 DWORD PTR tv267[rsp], eax
  0033b	e8 00 00 00 00	 call	 ?eof@?$_Narrow_char_traits@DH@std@@SAHXZ ; std::_Narrow_char_traits<char,int>::eof
  00340	89 84 24 b4 00
	00 00		 mov	 DWORD PTR tv265[rsp], eax
  00347	8b 94 24 b0 00
	00 00		 mov	 edx, DWORD PTR tv267[rsp]
  0034e	8b 8c 24 b4 00
	00 00		 mov	 ecx, DWORD PTR tv265[rsp]
  00355	e8 00 00 00 00	 call	 ?eq_int_type@?$_Narrow_char_traits@DH@std@@SA_NHH@Z ; std::_Narrow_char_traits<char,int>::eq_int_type
  0035a	0f b6 c0	 movzx	 eax, al
  0035d	85 c0		 test	 eax, eax
  0035f	74 0d		 je	 SHORT $LN15@operator
; Line 796
  00361	8b 44 24 20	 mov	 eax, DWORD PTR _State$[rsp]
  00365	83 c8 04	 or	 eax, 4
  00368	89 44 24 20	 mov	 DWORD PTR _State$[rsp], eax
; Line 797
  0036c	eb 05		 jmp	 SHORT $LN14@operator
$LN15@operator:
; Line 799
  0036e	e9 29 ff ff ff	 jmp	 $LN5@operator
$LN14@operator:
; Line 802
  00373	48 8b 84 24 e0
	00 00 00	 mov	 rax, QWORD PTR _Ostr$[rsp]
  0037b	48 8b 00	 mov	 rax, QWORD PTR [rax]
  0037e	48 63 40 04	 movsxd	 rax, DWORD PTR [rax+4]
  00382	48 8b 8c 24 e0
	00 00 00	 mov	 rcx, QWORD PTR _Ostr$[rsp]
  0038a	48 03 c8	 add	 rcx, rax
  0038d	48 8b c1	 mov	 rax, rcx
  00390	48 89 84 24 b8
	00 00 00	 mov	 QWORD PTR tv285[rsp], rax
  00398	33 d2		 xor	 edx, edx
  0039a	48 8b 8c 24 b8
	00 00 00	 mov	 rcx, QWORD PTR tv285[rsp]
  003a2	ff 15 00 00 00
	00		 call	 QWORD PTR __imp_?width@ios_base@std@@QEAA_J_J@Z
  003a8	90		 npad	 1
  003a9	eb 00		 jmp	 SHORT $LN9@operator
$LN23@operator:
$LN9@operator:
; Line 806
  003ab	48 8b 84 24 e0
	00 00 00	 mov	 rax, QWORD PTR _Ostr$[rsp]
  003b3	48 8b 00	 mov	 rax, QWORD PTR [rax]
  003b6	48 63 40 04	 movsxd	 rax, DWORD PTR [rax+4]
  003ba	48 8b 8c 24 e0
	00 00 00	 mov	 rcx, QWORD PTR _Ostr$[rsp]
  003c2	48 03 c8	 add	 rcx, rax
  003c5	48 8b c1	 mov	 rax, rcx
  003c8	48 89 84 24 c8
	00 00 00	 mov	 QWORD PTR tv314[rsp], rax
  003d0	45 33 c0	 xor	 r8d, r8d
  003d3	8b 54 24 20	 mov	 edx, DWORD PTR _State$[rsp]
  003d7	48 8b 8c 24 c8
	00 00 00	 mov	 rcx, QWORD PTR tv314[rsp]
  003df	ff 15 00 00 00
	00		 call	 QWORD PTR __imp_?setstate@?$basic_ios@DU?$char_traits@D@std@@@std@@QEAAXH_N@Z
; Line 807
  003e5	48 8b 84 24 e0
	00 00 00	 mov	 rax, QWORD PTR _Ostr$[rsp]
  003ed	48 89 44 24 68	 mov	 QWORD PTR $T4[rsp], rax
  003f2	48 8d 4c 24 48	 lea	 rcx, QWORD PTR _Ok$[rsp]
  003f7	e8 00 00 00 00	 call	 ??1sentry@?$basic_ostream@DU?$char_traits@D@std@@@std@@QEAA@XZ ; std::basic_ostream<char,std::char_traits<char> >::sentry::~sentry
  003fc	48 8b 44 24 68	 mov	 rax, QWORD PTR $T4[rsp]
; Line 808
  00401	48 8b f8	 mov	 rdi, rax
  00404	48 8b cc	 mov	 rcx, rsp
  00407	48 8d 15 00 00
	00 00		 lea	 rdx, OFFSET FLAT:??$?6U?$char_traits@D@std@@@std@@YAAEAV?$basic_ostream@DU?$char_traits@D@std@@@0@AEAV10@PEBD@Z$rtcFrameData
  0040e	e8 00 00 00 00	 call	 _RTC_CheckStackVars
  00413	48 8b c7	 mov	 rax, rdi
  00416	48 81 c4 d0 00
	00 00		 add	 rsp, 208		; 000000d0H
  0041d	5f		 pop	 rdi
  0041e	c3		 ret	 0
??$?6U?$char_traits@D@std@@@std@@YAAEAV?$basic_ostream@DU?$char_traits@D@std@@@0@AEAV10@PEBD@Z ENDP ; std::operator<<<std::char_traits<char> >
_TEXT	ENDS
; Function compile flags: /Odtp /RTCsu
;	COMDAT text$x
text$x	SEGMENT
_State$ = 32
_Count$ = 40
_Pad$ = 48
_Ok$ = 72
$T4 = 104
tv137 = 112
tv194 = 120
tv192 = 128
tv139 = 132
tv201 = 136
tv199 = 140
tv223 = 144
tv318 = 152
tv260 = 160
tv258 = 168
tv319 = 172
tv267 = 176
tv265 = 180
tv285 = 184
tv299 = 192
tv314 = 200
_Ostr$ = 224
_Val$ = 232
?dtor$0@?0???$?6U?$char_traits@D@std@@@std@@YAAEAV?$basic_ostream@DU?$char_traits@D@std@@@0@AEAV10@PEBD@Z@4HA PROC ; `std::operator<<<std::char_traits<char> >'::`1'::dtor$0
  00000	48 89 4c 24 08	 mov	 QWORD PTR [rsp+8], rcx
  00005	48 89 54 24 10	 mov	 QWORD PTR [rsp+16], rdx
  0000a	55		 push	 rbp
  0000b	57		 push	 rdi
  0000c	48 83 ec 28	 sub	 rsp, 40			; 00000028H
  00010	48 8b ea	 mov	 rbp, rdx
  00013	48 8d 4d 48	 lea	 rcx, QWORD PTR _Ok$[rbp]
  00017	e8 00 00 00 00	 call	 ??1sentry@?$basic_ostream@DU?$char_traits@D@std@@@std@@QEAA@XZ ; std::basic_ostream<char,std::char_traits<char> >::sentry::~sentry
  0001c	48 83 c4 28	 add	 rsp, 40			; 00000028H
  00020	5f		 pop	 rdi
  00021	5d		 pop	 rbp
  00022	c3		 ret	 0
?dtor$0@?0???$?6U?$char_traits@D@std@@@std@@YAAEAV?$basic_ostream@DU?$char_traits@D@std@@@0@AEAV10@PEBD@Z@4HA ENDP ; `std::operator<<<std::char_traits<char> >'::`1'::dtor$0
text$x	ENDS
; Function compile flags: /Odtp /RTCsu
;	COMDAT text$x
text$x	SEGMENT
_State$ = 32
_Count$ = 40
_Pad$ = 48
_Ok$ = 72
$T4 = 104
tv137 = 112
tv194 = 120
tv192 = 128
tv139 = 132
tv201 = 136
tv199 = 140
tv223 = 144
tv318 = 152
tv260 = 160
tv258 = 168
tv319 = 172
tv267 = 176
tv265 = 180
tv285 = 184
tv299 = 192
tv314 = 200
_Ostr$ = 224
_Val$ = 232
?catch$1@?0???$?6U?$char_traits@D@std@@@std@@YAAEAV?$basic_ostream@DU?$char_traits@D@std@@@0@AEAV10@PEBD@Z@4HA PROC ; `std::operator<<<std::char_traits<char> >'::`1'::catch$1
; Line 803
  00000	48 89 4c 24 08	 mov	 QWORD PTR [rsp+8], rcx
  00005	48 89 54 24 10	 mov	 QWORD PTR [rsp+16], rdx
  0000a	55		 push	 rbp
  0000b	57		 push	 rdi
  0000c	48 83 ec 28	 sub	 rsp, 40			; 00000028H
  00010	48 8b ea	 mov	 rbp, rdx
__catch$??$?6U?$char_traits@D@std@@@std@@YAAEAV?$basic_ostream@DU?$char_traits@D@std@@@0@AEAV10@PEBD@Z$0:
  00013	48 8b 85 e0 00
	00 00		 mov	 rax, QWORD PTR _Ostr$[rbp]
  0001a	48 8b 00	 mov	 rax, QWORD PTR [rax]
  0001d	48 63 40 04	 movsxd	 rax, DWORD PTR [rax+4]
  00021	48 8b 8d e0 00
	00 00		 mov	 rcx, QWORD PTR _Ostr$[rbp]
  00028	48 03 c8	 add	 rcx, rax
  0002b	48 8b c1	 mov	 rax, rcx
  0002e	48 89 85 c0 00
	00 00		 mov	 QWORD PTR tv299[rbp], rax
  00035	41 b0 01	 mov	 r8b, 1
  00038	ba 04 00 00 00	 mov	 edx, 4
  0003d	48 8b 8d c0 00
	00 00		 mov	 rcx, QWORD PTR tv299[rbp]
  00044	ff 15 00 00 00
	00		 call	 QWORD PTR __imp_?setstate@?$basic_ios@DU?$char_traits@D@std@@@std@@QEAAXH_N@Z
  0004a	90		 npad	 1
  0004b	48 8d 05 00 00
	00 00		 lea	 rax, $LN23@catch$1
  00052	48 83 c4 28	 add	 rsp, 40			; 00000028H
  00056	5f		 pop	 rdi
  00057	5d		 pop	 rbp
  00058	c3		 ret	 0
  00059	cc		 int	 3
?catch$1@?0???$?6U?$char_traits@D@std@@@std@@YAAEAV?$basic_ostream@DU?$char_traits@D@std@@@0@AEAV10@PEBD@Z@4HA ENDP ; `std::operator<<<std::char_traits<char> >'::`1'::catch$1
text$x	ENDS
; Function compile flags: /Odtp /RTCsu
;	COMDAT ??$?RV?$mersenne_twister_engine@I$0CA@$0CHA@$0BIN@$0BP@$0JJAILANP@$0L@$0PPPPPPPP@$06$0JNCMFGIA@$0P@$0OPMGAAAA@$0BC@$0GMAHIJGF@@std@@@?$uniform_int@H@std@@QEAAHAEAV?$mersenne_twister_engine@I$0CA@$0CHA@$0BIN@$0BP@$0JJAILANP@$0L@$0PPPPPPPP@$06$0JNCMFGIA@$0P@$0OPMGAAAA@$0BC@$0GMAHIJGF@@1@@Z
_TEXT	SEGMENT
this$ = 48
_Eng$ = 56
??$?RV?$mersenne_twister_engine@I$0CA@$0CHA@$0BIN@$0BP@$0JJAILANP@$0L@$0PPPPPPPP@$06$0JNCMFGIA@$0P@$0OPMGAAAA@$0BC@$0GMAHIJGF@@std@@@?$uniform_int@H@std@@QEAAHAEAV?$mersenne_twister_engine@I$0CA@$0CHA@$0BIN@$0BP@$0JJAILANP@$0L@$0PPPPPPPP@$06$0JNCMFGIA@$0P@$0OPMGAAAA@$0BC@$0GMAHIJGF@@1@@Z PROC ; std::uniform_int<int>::operator()<std::mersenne_twister_engine<unsigned int,32,624,397,31,2567483615,11,4294967295,7,2636928640,15,4022730752,18,1812433253> >, COMDAT
; File C:\Program Files\Microsoft Visual Studio\2022\Community\VC\Tools\MSVC\14.38.33130\include\random
; Line 1944
$LN3:
  00000	48 89 54 24 10	 mov	 QWORD PTR [rsp+16], rdx
  00005	48 89 4c 24 08	 mov	 QWORD PTR [rsp+8], rcx
  0000a	57		 push	 rdi
  0000b	48 83 ec 20	 sub	 rsp, 32			; 00000020H
; Line 1945
  0000f	48 8b 44 24 30	 mov	 rax, QWORD PTR this$[rsp]
  00014	44 8b 48 04	 mov	 r9d, DWORD PTR [rax+4]
  00018	48 8b 44 24 30	 mov	 rax, QWORD PTR this$[rsp]
  0001d	44 8b 00	 mov	 r8d, DWORD PTR [rax]
  00020	48 8b 54 24 38	 mov	 rdx, QWORD PTR _Eng$[rsp]
  00025	48 8b 4c 24 30	 mov	 rcx, QWORD PTR this$[rsp]
  0002a	e8 00 00 00 00	 call	 ??$_Eval@V?$mersenne_twister_engine@I$0CA@$0CHA@$0BIN@$0BP@$0JJAILANP@$0L@$0PPPPPPPP@$06$0JNCMFGIA@$0P@$0OPMGAAAA@$0BC@$0GMAHIJGF@@std@@@?$uniform_int@H@std@@AEBAHAEAV?$mersenne_twister_engine@I$0CA@$0CHA@$0BIN@$0BP@$0JJAILANP@$0L@$0PPPPPPPP@$06$0JNCMFGIA@$0P@$0OPMGAAAA@$0BC@$0GMAHIJGF@@1@HH@Z ; std::uniform_int<int>::_Eval<std::mersenne_twister_engine<unsigned int,32,624,397,31,2567483615,11,4294967295,7,2636928640,15,4022730752,18,1812433253> >
; Line 1946
  0002f	48 83 c4 20	 add	 rsp, 32			; 00000020H
  00033	5f		 pop	 rdi
  00034	c3		 ret	 0
??$?RV?$mersenne_twister_engine@I$0CA@$0CHA@$0BIN@$0BP@$0JJAILANP@$0L@$0PPPPPPPP@$06$0JNCMFGIA@$0P@$0OPMGAAAA@$0BC@$0GMAHIJGF@@std@@@?$uniform_int@H@std@@QEAAHAEAV?$mersenne_twister_engine@I$0CA@$0CHA@$0BIN@$0BP@$0JJAILANP@$0L@$0PPPPPPPP@$06$0JNCMFGIA@$0P@$0OPMGAAAA@$0BC@$0GMAHIJGF@@1@@Z ENDP ; std::uniform_int<int>::operator()<std::mersenne_twister_engine<unsigned int,32,624,397,31,2567483615,11,4294967295,7,2636928640,15,4022730752,18,1812433253> >
_TEXT	ENDS
; Function compile flags: /Odtp /RTCsu
;	COMDAT ??0?$uniform_int_distribution@H@std@@QEAA@HH@Z
_TEXT	SEGMENT
this$ = 48
_Min0$ = 56
_Max0$ = 64
??0?$uniform_int_distribution@H@std@@QEAA@HH@Z PROC	; std::uniform_int_distribution<int>::uniform_int_distribution<int>, COMDAT
; File C:\Program Files\Microsoft Visual Studio\2022\Community\VC\Tools\MSVC\14.38.33130\include\random
; Line 2039
$LN3:
  00000	44 89 44 24 18	 mov	 DWORD PTR [rsp+24], r8d
  00005	89 54 24 10	 mov	 DWORD PTR [rsp+16], edx
  00009	48 89 4c 24 08	 mov	 QWORD PTR [rsp+8], rcx
  0000e	57		 push	 rdi
  0000f	48 83 ec 20	 sub	 rsp, 32			; 00000020H
; Line 2040
  00013	44 8b 44 24 40	 mov	 r8d, DWORD PTR _Max0$[rsp]
  00018	8b 54 24 38	 mov	 edx, DWORD PTR _Min0$[rsp]
  0001c	48 8b 4c 24 30	 mov	 rcx, QWORD PTR this$[rsp]
  00021	e8 00 00 00 00	 call	 ??0?$uniform_int@H@std@@QEAA@HH@Z ; std::uniform_int<int>::uniform_int<int>
  00026	48 8b 44 24 30	 mov	 rax, QWORD PTR this$[rsp]
  0002b	48 83 c4 20	 add	 rsp, 32			; 00000020H
  0002f	5f		 pop	 rdi
  00030	c3		 ret	 0
??0?$uniform_int_distribution@H@std@@QEAA@HH@Z ENDP	; std::uniform_int_distribution<int>::uniform_int_distribution<int>
_TEXT	ENDS
; Function compile flags: /Odtp /RTCsu
;	COMDAT ?_Init@param_type@?$uniform_int@H@std@@QEAAXHH@Z
_TEXT	SEGMENT
this$ = 64
_Min0$ = 72
_Max0$ = 80
?_Init@param_type@?$uniform_int@H@std@@QEAAXHH@Z PROC	; std::uniform_int<int>::param_type::_Init, COMDAT
; File C:\Program Files\Microsoft Visual Studio\2022\Community\VC\Tools\MSVC\14.38.33130\include\random
; Line 1901
$LN12:
  00000	44 89 44 24 18	 mov	 DWORD PTR [rsp+24], r8d
  00005	89 54 24 10	 mov	 DWORD PTR [rsp+16], edx
  00009	48 89 4c 24 08	 mov	 QWORD PTR [rsp+8], rcx
  0000e	57		 push	 rdi
  0000f	48 83 ec 30	 sub	 rsp, 48			; 00000030H
$LN4@Init:
; Line 1902
  00013	8b 44 24 50	 mov	 eax, DWORD PTR _Max0$[rsp]
  00017	39 44 24 48	 cmp	 DWORD PTR _Min0$[rsp], eax
  0001b	7f 02		 jg	 SHORT $LN7@Init
  0001d	eb 6b		 jmp	 SHORT $LN9@Init
$LN7@Init:
  0001f	48 8d 05 00 00
	00 00		 lea	 rax, OFFSET FLAT:??_C@_0CO@CCCJIBKO@invalid?5min?5and?5max?5arguments?5f@
  00026	48 89 44 24 28	 mov	 QWORD PTR [rsp+40], rax
  0002b	48 8d 05 00 00
	00 00		 lea	 rax, OFFSET FLAT:??_C@_02DKCKIIND@?$CFs@
  00032	48 89 44 24 20	 mov	 QWORD PTR [rsp+32], rax
  00037	45 33 c9	 xor	 r9d, r9d
  0003a	41 b8 6e 07 00
	00		 mov	 r8d, 1902		; 0000076eH
  00040	48 8d 15 00 00
	00 00		 lea	 rdx, OFFSET FLAT:??_C@_0GB@HCBOKIBA@C?3?2Program?5Files?2Microsoft?5Visu@
  00047	b9 02 00 00 00	 mov	 ecx, 2
  0004c	ff 15 00 00 00
	00		 call	 QWORD PTR __imp__CrtDbgReport
  00052	83 f8 01	 cmp	 eax, 1
  00055	75 03		 jne	 SHORT $LN11@Init
  00057	cc		 int	 3
  00058	33 c0		 xor	 eax, eax
$LN11@Init:
  0005a	48 c7 44 24 20
	00 00 00 00	 mov	 QWORD PTR [rsp+32], 0
  00063	41 b9 6e 07 00
	00		 mov	 r9d, 1902		; 0000076eH
  00069	4c 8d 05 00 00
	00 00		 lea	 r8, OFFSET FLAT:??_C@_1MC@DOHEDGIC@?$AAC?$AA?3?$AA?2?$AAP?$AAr?$AAo?$AAg?$AAr?$AAa?$AAm?$AA?5?$AAF?$AAi?$AAl?$AAe@
  00070	48 8d 15 00 00
	00 00		 lea	 rdx, OFFSET FLAT:??_C@_11LOCGONAA@@
  00077	48 8d 0d 00 00
	00 00		 lea	 rcx, OFFSET FLAT:??_C@_1GA@FJHEAOJP@?$AA?$CC?$AAi?$AAn?$AAv?$AAa?$AAl?$AAi?$AAd?$AA?5?$AAm?$AAi?$AAn?$AA?5?$AAa?$AAn@
  0007e	ff 15 00 00 00
	00		 call	 QWORD PTR __imp__invalid_parameter
  00084	33 c0		 xor	 eax, eax
  00086	85 c0		 test	 eax, eax
  00088	75 95		 jne	 SHORT $LN7@Init
$LN9@Init:
  0008a	33 c0		 xor	 eax, eax
  0008c	85 c0		 test	 eax, eax
  0008e	75 83		 jne	 SHORT $LN4@Init
; Line 1903
  00090	48 8b 44 24 40	 mov	 rax, QWORD PTR this$[rsp]
  00095	8b 4c 24 48	 mov	 ecx, DWORD PTR _Min0$[rsp]
  00099	89 08		 mov	 DWORD PTR [rax], ecx
; Line 1904
  0009b	48 8b 44 24 40	 mov	 rax, QWORD PTR this$[rsp]
  000a0	8b 4c 24 50	 mov	 ecx, DWORD PTR _Max0$[rsp]
  000a4	89 48 04	 mov	 DWORD PTR [rax+4], ecx
; Line 1905
  000a7	48 83 c4 30	 add	 rsp, 48			; 00000030H
  000ab	5f		 pop	 rdi
  000ac	c3		 ret	 0
?_Init@param_type@?$uniform_int@H@std@@QEAAXHH@Z ENDP	; std::uniform_int<int>::param_type::_Init
_TEXT	ENDS
; Function compile flags: /Odtp /RTCsu
;	COMDAT ??0param_type@?$uniform_int@H@std@@QEAA@HH@Z
_TEXT	SEGMENT
this$ = 48
_Min0$ = 56
_Max0$ = 64
??0param_type@?$uniform_int@H@std@@QEAA@HH@Z PROC	; std::uniform_int<int>::param_type::param_type, COMDAT
; File C:\Program Files\Microsoft Visual Studio\2022\Community\VC\Tools\MSVC\14.38.33130\include\random
; Line 1877
$LN3:
  00000	44 89 44 24 18	 mov	 DWORD PTR [rsp+24], r8d
  00005	89 54 24 10	 mov	 DWORD PTR [rsp+16], edx
  00009	48 89 4c 24 08	 mov	 QWORD PTR [rsp+8], rcx
  0000e	57		 push	 rdi
  0000f	48 83 ec 20	 sub	 rsp, 32			; 00000020H
; Line 1878
  00013	44 8b 44 24 40	 mov	 r8d, DWORD PTR _Max0$[rsp]
  00018	8b 54 24 38	 mov	 edx, DWORD PTR _Min0$[rsp]
  0001c	48 8b 4c 24 30	 mov	 rcx, QWORD PTR this$[rsp]
  00021	e8 00 00 00 00	 call	 ?_Init@param_type@?$uniform_int@H@std@@QEAAXHH@Z ; std::uniform_int<int>::param_type::_Init
; Line 1879
  00026	48 8b 44 24 30	 mov	 rax, QWORD PTR this$[rsp]
  0002b	48 83 c4 20	 add	 rsp, 32			; 00000020H
  0002f	5f		 pop	 rdi
  00030	c3		 ret	 0
??0param_type@?$uniform_int@H@std@@QEAA@HH@Z ENDP	; std::uniform_int<int>::param_type::param_type
_TEXT	ENDS
; Function compile flags: /Odtp /RTCsu
;	COMDAT ?_Adjust@?$uniform_int@H@std@@CAII@Z
_TEXT	SEGMENT
_Adjuster$1 = 0
_Uval$ = 32
?_Adjust@?$uniform_int@H@std@@CAII@Z PROC		; std::uniform_int<int>::_Adjust, COMDAT
; File C:\Program Files\Microsoft Visual Studio\2022\Community\VC\Tools\MSVC\14.38.33130\include\random
; Line 1997
$LN5:
  00000	89 4c 24 08	 mov	 DWORD PTR [rsp+8], ecx
  00004	57		 push	 rdi
  00005	48 83 ec 10	 sub	 rsp, 16
; Line 1999
  00009	c7 04 24 00 00
	00 80		 mov	 DWORD PTR _Adjuster$1[rsp], -2147483648 ; 80000000H
; Line 2001
  00010	81 7c 24 20 00
	00 00 80	 cmp	 DWORD PTR _Uval$[rsp], -2147483648 ; 80000000H
  00018	73 0d		 jae	 SHORT $LN2@Adjust
; Line 2002
  0001a	8b 44 24 20	 mov	 eax, DWORD PTR _Uval$[rsp]
  0001e	05 00 00 00 80	 add	 eax, -2147483648	; 80000000H
  00023	eb 0b		 jmp	 SHORT $LN1@Adjust
; Line 2003
  00025	eb 09		 jmp	 SHORT $LN1@Adjust
$LN2@Adjust:
; Line 2004
  00027	8b 44 24 20	 mov	 eax, DWORD PTR _Uval$[rsp]
  0002b	2d 00 00 00 80	 sub	 eax, -2147483648	; 80000000H
$LN1@Adjust:
; Line 2009
  00030	48 83 c4 10	 add	 rsp, 16
  00034	5f		 pop	 rdi
  00035	c3		 ret	 0
?_Adjust@?$uniform_int@H@std@@CAII@Z ENDP		; std::uniform_int<int>::_Adjust
_TEXT	ENDS
; Function compile flags: /Odtp /RTCsu
;	COMDAT ??0?$uniform_int@H@std@@QEAA@HH@Z
_TEXT	SEGMENT
tv70 = 32
this$ = 64
_Min0$ = 72
_Max0$ = 80
??0?$uniform_int@H@std@@QEAA@HH@Z PROC			; std::uniform_int<int>::uniform_int<int>, COMDAT
; File C:\Program Files\Microsoft Visual Studio\2022\Community\VC\Tools\MSVC\14.38.33130\include\random
; Line 1913
$LN3:
  00000	44 89 44 24 18	 mov	 DWORD PTR [rsp+24], r8d
  00005	89 54 24 10	 mov	 DWORD PTR [rsp+16], edx
  00009	48 89 4c 24 08	 mov	 QWORD PTR [rsp+8], rcx
  0000e	57		 push	 rdi
  0000f	48 83 ec 30	 sub	 rsp, 48			; 00000030H
  00013	48 8b 44 24 40	 mov	 rax, QWORD PTR this$[rsp]
  00018	48 89 44 24 20	 mov	 QWORD PTR tv70[rsp], rax
  0001d	44 8b 44 24 50	 mov	 r8d, DWORD PTR _Max0$[rsp]
  00022	8b 54 24 48	 mov	 edx, DWORD PTR _Min0$[rsp]
  00026	48 8b 4c 24 20	 mov	 rcx, QWORD PTR tv70[rsp]
  0002b	e8 00 00 00 00	 call	 ??0param_type@?$uniform_int@H@std@@QEAA@HH@Z ; std::uniform_int<int>::param_type::param_type
  00030	48 8b 44 24 40	 mov	 rax, QWORD PTR this$[rsp]
  00035	48 83 c4 30	 add	 rsp, 48			; 00000030H
  00039	5f		 pop	 rdi
  0003a	c3		 ret	 0
??0?$uniform_int@H@std@@QEAA@HH@Z ENDP			; std::uniform_int<int>::uniform_int<int>
_TEXT	ENDS
; Function compile flags: /Odtp /RTCsu
;	COMDAT ??0?$mersenne_twister_engine@I$0CA@$0CHA@$0BIN@$0BP@$0JJAILANP@$0L@$0PPPPPPPP@$06$0JNCMFGIA@$0P@$0OPMGAAAA@$0BC@$0GMAHIJGF@@std@@QEAA@I@Z
_TEXT	SEGMENT
this$ = 48
_Xx0$ = 56
??0?$mersenne_twister_engine@I$0CA@$0CHA@$0BIN@$0BP@$0JJAILANP@$0L@$0PPPPPPPP@$06$0JNCMFGIA@$0P@$0OPMGAAAA@$0BC@$0GMAHIJGF@@std@@QEAA@I@Z PROC ; std::mersenne_twister_engine<unsigned int,32,624,397,31,2567483615,11,4294967295,7,2636928640,15,4022730752,18,1812433253>::mersenne_twister_engine<unsigned int,32,624,397,31,2567483615,11,4294967295,7,2636928640,15,4022730752,18,1812433253>, COMDAT
; File C:\Program Files\Microsoft Visual Studio\2022\Community\VC\Tools\MSVC\14.38.33130\include\random
; Line 1299
$LN3:
  00000	89 54 24 10	 mov	 DWORD PTR [rsp+16], edx
  00004	48 89 4c 24 08	 mov	 QWORD PTR [rsp+8], rcx
  00009	57		 push	 rdi
  0000a	48 83 ec 20	 sub	 rsp, 32			; 00000020H
  0000e	41 b9 65 89 07
	6c		 mov	 r9d, 1812433253		; 6c078965H
  00014	41 b8 ff ff ff
	ff		 mov	 r8d, -1			; ffffffffH
  0001a	8b 54 24 38	 mov	 edx, DWORD PTR _Xx0$[rsp]
  0001e	48 8b 4c 24 30	 mov	 rcx, QWORD PTR this$[rsp]
  00023	e8 00 00 00 00	 call	 ??0?$mersenne_twister@I$0CA@$0CHA@$0BIN@$0BP@$0JJAILANP@$0L@$06$0JNCMFGIA@$0P@$0OPMGAAAA@$0BC@@std@@QEAA@III@Z ; std::mersenne_twister<unsigned int,32,624,397,31,2567483615,11,7,2636928640,15,4022730752,18>::mersenne_twister<unsigned int,32,624,397,31,2567483615,11,7,2636928640,15,4022730752,18>
  00028	48 8b 44 24 30	 mov	 rax, QWORD PTR this$[rsp]
  0002d	48 83 c4 20	 add	 rsp, 32			; 00000020H
  00031	5f		 pop	 rdi
  00032	c3		 ret	 0
??0?$mersenne_twister_engine@I$0CA@$0CHA@$0BIN@$0BP@$0JJAILANP@$0L@$0PPPPPPPP@$06$0JNCMFGIA@$0P@$0OPMGAAAA@$0BC@$0GMAHIJGF@@std@@QEAA@I@Z ENDP ; std::mersenne_twister_engine<unsigned int,32,624,397,31,2567483615,11,4294967295,7,2636928640,15,4022730752,18,1812433253>::mersenne_twister_engine<unsigned int,32,624,397,31,2567483615,11,4294967295,7,2636928640,15,4022730752,18,1812433253>
_TEXT	ENDS
; Function compile flags: /Odtp /RTCsu
;	COMDAT ?_Refill_upper@?$mersenne_twister@I$0CA@$0CHA@$0BIN@$0BP@$0JJAILANP@$0L@$06$0JNCMFGIA@$0P@$0OPMGAAAA@$0BC@@std@@IEAAXXZ
_TEXT	SEGMENT
_Ix$1 = 0
_Tmp$2 = 8
tv128 = 12
this$ = 32
?_Refill_upper@?$mersenne_twister@I$0CA@$0CHA@$0BIN@$0BP@$0JJAILANP@$0L@$06$0JNCMFGIA@$0P@$0OPMGAAAA@$0BC@@std@@IEAAXXZ PROC ; std::mersenne_twister<unsigned int,32,624,397,31,2567483615,11,7,2636928640,15,4022730752,18>::_Refill_upper, COMDAT
; File C:\Program Files\Microsoft Visual Studio\2022\Community\VC\Tools\MSVC\14.38.33130\include\random
; Line 1248
$LN8:
  00000	48 89 4c 24 08	 mov	 QWORD PTR [rsp+8], rcx
  00005	57		 push	 rdi
  00006	48 83 ec 10	 sub	 rsp, 16
; Line 1249
  0000a	48 c7 04 24 70
	02 00 00	 mov	 QWORD PTR _Ix$1[rsp], 624 ; 00000270H
  00012	eb 0b		 jmp	 SHORT $LN4@Refill_upp
$LN2@Refill_upp:
  00014	48 8b 04 24	 mov	 rax, QWORD PTR _Ix$1[rsp]
  00018	48 ff c0	 inc	 rax
  0001b	48 89 04 24	 mov	 QWORD PTR _Ix$1[rsp], rax
$LN4@Refill_upp:
  0001f	48 81 3c 24 e0
	04 00 00	 cmp	 QWORD PTR _Ix$1[rsp], 1248 ; 000004e0H
  00027	73 78		 jae	 SHORT $LN3@Refill_upp
; Line 1250
  00029	48 8b 44 24 20	 mov	 rax, QWORD PTR this$[rsp]
  0002e	48 8b 0c 24	 mov	 rcx, QWORD PTR _Ix$1[rsp]
  00032	8b 84 88 44 f6
	ff ff		 mov	 eax, DWORD PTR [rax+rcx*4-2492]
  00039	25 00 00 00 80	 and	 eax, -2147483648	; 80000000H
  0003e	48 8b 4c 24 20	 mov	 rcx, QWORD PTR this$[rsp]
  00043	48 8b 14 24	 mov	 rdx, QWORD PTR _Ix$1[rsp]
  00047	8b 8c 91 48 f6
	ff ff		 mov	 ecx, DWORD PTR [rcx+rdx*4-2488]
  0004e	0f ba f1 1f	 btr	 ecx, 31
  00052	0b c1		 or	 eax, ecx
  00054	89 44 24 08	 mov	 DWORD PTR _Tmp$2[rsp], eax
; Line 1251
  00058	8b 44 24 08	 mov	 eax, DWORD PTR _Tmp$2[rsp]
  0005c	83 e0 01	 and	 eax, 1
  0005f	85 c0		 test	 eax, eax
  00061	74 0a		 je	 SHORT $LN6@Refill_upp
  00063	c7 44 24 0c df
	b0 08 99	 mov	 DWORD PTR tv128[rsp], -1727483681 ; 9908b0dfH
  0006b	eb 08		 jmp	 SHORT $LN7@Refill_upp
$LN6@Refill_upp:
  0006d	c7 44 24 0c 00
	00 00 00	 mov	 DWORD PTR tv128[rsp], 0
$LN7@Refill_upp:
  00075	8b 44 24 08	 mov	 eax, DWORD PTR _Tmp$2[rsp]
  00079	d1 e8		 shr	 eax, 1
  0007b	33 44 24 0c	 xor	 eax, DWORD PTR tv128[rsp]
  0007f	48 8b 4c 24 20	 mov	 rcx, QWORD PTR this$[rsp]
  00084	48 8b 14 24	 mov	 rdx, QWORD PTR _Ix$1[rsp]
  00088	33 84 91 78 fc
	ff ff		 xor	 eax, DWORD PTR [rcx+rdx*4-904]
  0008f	48 8b 4c 24 20	 mov	 rcx, QWORD PTR this$[rsp]
  00094	48 8b 14 24	 mov	 rdx, QWORD PTR _Ix$1[rsp]
  00098	89 44 91 04	 mov	 DWORD PTR [rcx+rdx*4+4], eax
; Line 1252
  0009c	e9 73 ff ff ff	 jmp	 $LN2@Refill_upp
$LN3@Refill_upp:
; Line 1253
  000a1	48 83 c4 10	 add	 rsp, 16
  000a5	5f		 pop	 rdi
  000a6	c3		 ret	 0
?_Refill_upper@?$mersenne_twister@I$0CA@$0CHA@$0BIN@$0BP@$0JJAILANP@$0L@$06$0JNCMFGIA@$0P@$0OPMGAAAA@$0BC@@std@@IEAAXXZ ENDP ; std::mersenne_twister<unsigned int,32,624,397,31,2567483615,11,7,2636928640,15,4022730752,18>::_Refill_upper
_TEXT	ENDS
; Function compile flags: /Odtp /RTCsu
;	COMDAT ?_Refill_lower@?$mersenne_twister@I$0CA@$0CHA@$0BIN@$0BP@$0JJAILANP@$0L@$06$0JNCMFGIA@$0P@$0OPMGAAAA@$0BC@@std@@IEAAXXZ
_TEXT	SEGMENT
_Wrap_bound_one$ = 0
_Wrap_bound_m$ = 8
_Ix$1 = 16
_Tmp$2 = 24
_Ix$3 = 32
_Tmp$4 = 40
_Ix$5 = 48
_Tmp$6 = 56
tv128 = 60
tv172 = 64
tv211 = 68
this$ = 96
?_Refill_lower@?$mersenne_twister@I$0CA@$0CHA@$0BIN@$0BP@$0JJAILANP@$0L@$06$0JNCMFGIA@$0P@$0OPMGAAAA@$0BC@@std@@IEAAXXZ PROC ; std::mersenne_twister<unsigned int,32,624,397,31,2567483615,11,7,2636928640,15,4022730752,18>::_Refill_lower, COMDAT
; File C:\Program Files\Microsoft Visual Studio\2022\Community\VC\Tools\MSVC\14.38.33130\include\random
; Line 1208
$LN15:
  00000	48 89 4c 24 08	 mov	 QWORD PTR [rsp+8], rcx
  00005	57		 push	 rdi
  00006	48 83 ec 50	 sub	 rsp, 80			; 00000050H
; Line 1210
  0000a	48 c7 04 24 6f
	02 00 00	 mov	 QWORD PTR _Wrap_bound_one$[rsp], 623 ; 0000026fH
; Line 1211
  00012	48 c7 44 24 08
	e3 00 00 00	 mov	 QWORD PTR _Wrap_bound_m$[rsp], 227 ; 000000e3H
; Line 1226
  0001b	48 c7 44 24 10
	00 00 00 00	 mov	 QWORD PTR _Ix$1[rsp], 0
  00024	eb 0d		 jmp	 SHORT $LN4@Refill_low
$LN2@Refill_low:
  00026	48 8b 44 24 10	 mov	 rax, QWORD PTR _Ix$1[rsp]
  0002b	48 ff c0	 inc	 rax
  0002e	48 89 44 24 10	 mov	 QWORD PTR _Ix$1[rsp], rax
$LN4@Refill_low:
  00033	48 81 7c 24 10
	e3 00 00 00	 cmp	 QWORD PTR _Ix$1[rsp], 227 ; 000000e3H
  0003c	73 7c		 jae	 SHORT $LN3@Refill_low
; Line 1227
  0003e	48 8b 44 24 60	 mov	 rax, QWORD PTR this$[rsp]
  00043	48 8b 4c 24 10	 mov	 rcx, QWORD PTR _Ix$1[rsp]
  00048	8b 84 88 c4 09
	00 00		 mov	 eax, DWORD PTR [rax+rcx*4+2500]
  0004f	25 00 00 00 80	 and	 eax, -2147483648	; 80000000H
  00054	48 8b 4c 24 60	 mov	 rcx, QWORD PTR this$[rsp]
  00059	48 8b 54 24 10	 mov	 rdx, QWORD PTR _Ix$1[rsp]
  0005e	8b 8c 91 c8 09
	00 00		 mov	 ecx, DWORD PTR [rcx+rdx*4+2504]
  00065	0f ba f1 1f	 btr	 ecx, 31
  00069	0b c1		 or	 eax, ecx
  0006b	89 44 24 18	 mov	 DWORD PTR _Tmp$2[rsp], eax
; Line 1228
  0006f	8b 44 24 18	 mov	 eax, DWORD PTR _Tmp$2[rsp]
  00073	83 e0 01	 and	 eax, 1
  00076	85 c0		 test	 eax, eax
  00078	74 0a		 je	 SHORT $LN9@Refill_low
  0007a	c7 44 24 3c df
	b0 08 99	 mov	 DWORD PTR tv128[rsp], -1727483681 ; 9908b0dfH
  00082	eb 08		 jmp	 SHORT $LN10@Refill_low
$LN9@Refill_low:
  00084	c7 44 24 3c 00
	00 00 00	 mov	 DWORD PTR tv128[rsp], 0
$LN10@Refill_low:
  0008c	8b 44 24 18	 mov	 eax, DWORD PTR _Tmp$2[rsp]
  00090	d1 e8		 shr	 eax, 1
  00092	33 44 24 3c	 xor	 eax, DWORD PTR tv128[rsp]
  00096	48 8b 4c 24 60	 mov	 rcx, QWORD PTR this$[rsp]
  0009b	48 8b 54 24 10	 mov	 rdx, QWORD PTR _Ix$1[rsp]
  000a0	33 84 91 f8 0f
	00 00		 xor	 eax, DWORD PTR [rcx+rdx*4+4088]
  000a7	48 8b 4c 24 60	 mov	 rcx, QWORD PTR this$[rsp]
  000ac	48 8b 54 24 10	 mov	 rdx, QWORD PTR _Ix$1[rsp]
  000b1	89 44 91 04	 mov	 DWORD PTR [rcx+rdx*4+4], eax
; Line 1229
  000b5	e9 6c ff ff ff	 jmp	 $LN2@Refill_low
$LN3@Refill_low:
; Line 1231
  000ba	48 c7 44 24 20
	e3 00 00 00	 mov	 QWORD PTR _Ix$3[rsp], 227 ; 000000e3H
  000c3	eb 0d		 jmp	 SHORT $LN7@Refill_low
$LN5@Refill_low:
  000c5	48 8b 44 24 20	 mov	 rax, QWORD PTR _Ix$3[rsp]
  000ca	48 ff c0	 inc	 rax
  000cd	48 89 44 24 20	 mov	 QWORD PTR _Ix$3[rsp], rax
$LN7@Refill_low:
  000d2	48 81 7c 24 20
	6f 02 00 00	 cmp	 QWORD PTR _Ix$3[rsp], 623 ; 0000026fH
  000db	73 7c		 jae	 SHORT $LN6@Refill_low
; Line 1233
  000dd	48 8b 44 24 60	 mov	 rax, QWORD PTR this$[rsp]
  000e2	48 8b 4c 24 20	 mov	 rcx, QWORD PTR _Ix$3[rsp]
  000e7	8b 84 88 c4 09
	00 00		 mov	 eax, DWORD PTR [rax+rcx*4+2500]
  000ee	25 00 00 00 80	 and	 eax, -2147483648	; 80000000H
  000f3	48 8b 4c 24 60	 mov	 rcx, QWORD PTR this$[rsp]
  000f8	48 8b 54 24 20	 mov	 rdx, QWORD PTR _Ix$3[rsp]
  000fd	8b 8c 91 c8 09
	00 00		 mov	 ecx, DWORD PTR [rcx+rdx*4+2504]
  00104	0f ba f1 1f	 btr	 ecx, 31
  00108	0b c1		 or	 eax, ecx
  0010a	89 44 24 28	 mov	 DWORD PTR _Tmp$4[rsp], eax
; Line 1234
  0010e	8b 44 24 28	 mov	 eax, DWORD PTR _Tmp$4[rsp]
  00112	83 e0 01	 and	 eax, 1
  00115	85 c0		 test	 eax, eax
  00117	74 0a		 je	 SHORT $LN11@Refill_low
  00119	c7 44 24 40 df
	b0 08 99	 mov	 DWORD PTR tv172[rsp], -1727483681 ; 9908b0dfH
  00121	eb 08		 jmp	 SHORT $LN12@Refill_low
$LN11@Refill_low:
  00123	c7 44 24 40 00
	00 00 00	 mov	 DWORD PTR tv172[rsp], 0
$LN12@Refill_low:
  0012b	8b 44 24 28	 mov	 eax, DWORD PTR _Tmp$4[rsp]
  0012f	d1 e8		 shr	 eax, 1
  00131	33 44 24 40	 xor	 eax, DWORD PTR tv172[rsp]
  00135	48 8b 4c 24 60	 mov	 rcx, QWORD PTR this$[rsp]
  0013a	48 8b 54 24 20	 mov	 rdx, QWORD PTR _Ix$3[rsp]
  0013f	33 84 91 78 fc
	ff ff		 xor	 eax, DWORD PTR [rcx+rdx*4-904]
  00146	48 8b 4c 24 60	 mov	 rcx, QWORD PTR this$[rsp]
  0014b	48 8b 54 24 20	 mov	 rdx, QWORD PTR _Ix$3[rsp]
  00150	89 44 91 04	 mov	 DWORD PTR [rcx+rdx*4+4], eax
; Line 1235
  00154	e9 6c ff ff ff	 jmp	 $LN5@Refill_low
$LN6@Refill_low:
; Line 1238
  00159	48 c7 44 24 30
	6f 02 00 00	 mov	 QWORD PTR _Ix$5[rsp], 623 ; 0000026fH
; Line 1240
  00162	b8 04 00 00 00	 mov	 eax, 4
  00167	48 69 c0 df 04
	00 00		 imul	 rax, rax, 1247		; 000004dfH
  0016e	48 8b 4c 24 60	 mov	 rcx, QWORD PTR this$[rsp]
  00173	8b 44 01 04	 mov	 eax, DWORD PTR [rcx+rax+4]
  00177	25 00 00 00 80	 and	 eax, -2147483648	; 80000000H
  0017c	b9 04 00 00 00	 mov	 ecx, 4
  00181	48 6b c9 00	 imul	 rcx, rcx, 0
  00185	48 8b 54 24 60	 mov	 rdx, QWORD PTR this$[rsp]
  0018a	8b 4c 0a 04	 mov	 ecx, DWORD PTR [rdx+rcx+4]
  0018e	0f ba f1 1f	 btr	 ecx, 31
  00192	0b c1		 or	 eax, ecx
  00194	89 44 24 38	 mov	 DWORD PTR _Tmp$6[rsp], eax
; Line 1241
  00198	8b 44 24 38	 mov	 eax, DWORD PTR _Tmp$6[rsp]
  0019c	83 e0 01	 and	 eax, 1
  0019f	85 c0		 test	 eax, eax
  001a1	74 0a		 je	 SHORT $LN13@Refill_low
  001a3	c7 44 24 44 df
	b0 08 99	 mov	 DWORD PTR tv211[rsp], -1727483681 ; 9908b0dfH
  001ab	eb 08		 jmp	 SHORT $LN14@Refill_low
$LN13@Refill_low:
  001ad	c7 44 24 44 00
	00 00 00	 mov	 DWORD PTR tv211[rsp], 0
$LN14@Refill_low:
  001b5	8b 44 24 38	 mov	 eax, DWORD PTR _Tmp$6[rsp]
  001b9	d1 e8		 shr	 eax, 1
  001bb	33 44 24 44	 xor	 eax, DWORD PTR tv211[rsp]
  001bf	b9 04 00 00 00	 mov	 ecx, 4
  001c4	48 69 c9 8c 01
	00 00		 imul	 rcx, rcx, 396		; 0000018cH
  001cb	48 8b 54 24 60	 mov	 rdx, QWORD PTR this$[rsp]
  001d0	33 44 0a 04	 xor	 eax, DWORD PTR [rdx+rcx+4]
  001d4	b9 04 00 00 00	 mov	 ecx, 4
  001d9	48 69 c9 6f 02
	00 00		 imul	 rcx, rcx, 623		; 0000026fH
  001e0	48 8b 54 24 60	 mov	 rdx, QWORD PTR this$[rsp]
  001e5	89 44 0a 04	 mov	 DWORD PTR [rdx+rcx+4], eax
; Line 1245
  001e9	48 8b 44 24 60	 mov	 rax, QWORD PTR this$[rsp]
  001ee	c7 00 00 00 00
	00		 mov	 DWORD PTR [rax], 0
; Line 1246
  001f4	48 83 c4 50	 add	 rsp, 80			; 00000050H
  001f8	5f		 pop	 rdi
  001f9	c3		 ret	 0
?_Refill_lower@?$mersenne_twister@I$0CA@$0CHA@$0BIN@$0BP@$0JJAILANP@$0L@$06$0JNCMFGIA@$0P@$0OPMGAAAA@$0BC@@std@@IEAAXXZ ENDP ; std::mersenne_twister<unsigned int,32,624,397,31,2567483615,11,7,2636928640,15,4022730752,18>::_Refill_lower
_TEXT	ENDS
; Function compile flags: /Odtp /RTCsu
;	COMDAT ??R?$mersenne_twister@I$0CA@$0CHA@$0BIN@$0BP@$0JJAILANP@$0L@$06$0JNCMFGIA@$0P@$0OPMGAAAA@$0BC@@std@@QEAAIXZ
_TEXT	SEGMENT
_Res$ = 32
tv129 = 36
this$ = 64
??R?$mersenne_twister@I$0CA@$0CHA@$0BIN@$0BP@$0JJAILANP@$0L@$06$0JNCMFGIA@$0P@$0OPMGAAAA@$0BC@@std@@QEAAIXZ PROC ; std::mersenne_twister<unsigned int,32,624,397,31,2567483615,11,7,2636928640,15,4022730752,18>::operator(), COMDAT
; File C:\Program Files\Microsoft Visual Studio\2022\Community\VC\Tools\MSVC\14.38.33130\include\random
; Line 1186
$LN6:
  00000	48 89 4c 24 08	 mov	 QWORD PTR [rsp+8], rcx
  00005	57		 push	 rdi
  00006	48 83 ec 30	 sub	 rsp, 48			; 00000030H
; Line 1187
  0000a	48 8b 44 24 40	 mov	 rax, QWORD PTR this$[rsp]
  0000f	81 38 70 02 00
	00		 cmp	 DWORD PTR [rax], 624	; 00000270H
  00015	75 0c		 jne	 SHORT $LN2@operator
; Line 1188
  00017	48 8b 4c 24 40	 mov	 rcx, QWORD PTR this$[rsp]
  0001c	e8 00 00 00 00	 call	 ?_Refill_upper@?$mersenne_twister@I$0CA@$0CHA@$0BIN@$0BP@$0JJAILANP@$0L@$06$0JNCMFGIA@$0P@$0OPMGAAAA@$0BC@@std@@IEAAXXZ ; std::mersenne_twister<unsigned int,32,624,397,31,2567483615,11,7,2636928640,15,4022730752,18>::_Refill_upper
  00021	eb 17		 jmp	 SHORT $LN3@operator
$LN2@operator:
; Line 1189
  00023	48 8b 44 24 40	 mov	 rax, QWORD PTR this$[rsp]
  00028	81 38 e0 04 00
	00		 cmp	 DWORD PTR [rax], 1248	; 000004e0H
  0002e	72 0a		 jb	 SHORT $LN4@operator
; Line 1190
  00030	48 8b 4c 24 40	 mov	 rcx, QWORD PTR this$[rsp]
  00035	e8 00 00 00 00	 call	 ?_Refill_lower@?$mersenne_twister@I$0CA@$0CHA@$0BIN@$0BP@$0JJAILANP@$0L@$06$0JNCMFGIA@$0P@$0OPMGAAAA@$0BC@@std@@IEAAXXZ ; std::mersenne_twister<unsigned int,32,624,397,31,2567483615,11,7,2636928640,15,4022730752,18>::_Refill_lower
$LN4@operator:
$LN3@operator:
; Line 1193
  0003a	48 8b 44 24 40	 mov	 rax, QWORD PTR this$[rsp]
  0003f	8b 00		 mov	 eax, DWORD PTR [rax]
  00041	48 8b 4c 24 40	 mov	 rcx, QWORD PTR this$[rsp]
  00046	8b 44 81 04	 mov	 eax, DWORD PTR [rcx+rax*4+4]
  0004a	89 44 24 24	 mov	 DWORD PTR tv129[rsp], eax
  0004e	48 8b 44 24 40	 mov	 rax, QWORD PTR this$[rsp]
  00053	8b 00		 mov	 eax, DWORD PTR [rax]
  00055	ff c0		 inc	 eax
  00057	48 8b 4c 24 40	 mov	 rcx, QWORD PTR this$[rsp]
  0005c	89 01		 mov	 DWORD PTR [rcx], eax
  0005e	8b 44 24 24	 mov	 eax, DWORD PTR tv129[rsp]
  00062	89 44 24 20	 mov	 DWORD PTR _Res$[rsp], eax
; Line 1194
  00066	8b 44 24 20	 mov	 eax, DWORD PTR _Res$[rsp]
  0006a	c1 e8 0b	 shr	 eax, 11
  0006d	48 8b 4c 24 40	 mov	 rcx, QWORD PTR this$[rsp]
  00072	23 81 84 13 00
	00		 and	 eax, DWORD PTR [rcx+4996]
  00078	8b 4c 24 20	 mov	 ecx, DWORD PTR _Res$[rsp]
  0007c	33 c8		 xor	 ecx, eax
  0007e	8b c1		 mov	 eax, ecx
  00080	89 44 24 20	 mov	 DWORD PTR _Res$[rsp], eax
; Line 1195
  00084	8b 44 24 20	 mov	 eax, DWORD PTR _Res$[rsp]
  00088	c1 e0 07	 shl	 eax, 7
  0008b	25 80 56 2c 9d	 and	 eax, -1658038656	; 9d2c5680H
  00090	8b 4c 24 20	 mov	 ecx, DWORD PTR _Res$[rsp]
  00094	33 c8		 xor	 ecx, eax
  00096	8b c1		 mov	 eax, ecx
  00098	89 44 24 20	 mov	 DWORD PTR _Res$[rsp], eax
; Line 1196
  0009c	8b 44 24 20	 mov	 eax, DWORD PTR _Res$[rsp]
  000a0	c1 e0 0f	 shl	 eax, 15
  000a3	25 00 00 c6 ef	 and	 eax, -272236544		; efc60000H
  000a8	8b 4c 24 20	 mov	 ecx, DWORD PTR _Res$[rsp]
  000ac	33 c8		 xor	 ecx, eax
  000ae	8b c1		 mov	 eax, ecx
  000b0	89 44 24 20	 mov	 DWORD PTR _Res$[rsp], eax
; Line 1197
  000b4	8b 44 24 20	 mov	 eax, DWORD PTR _Res$[rsp]
  000b8	c1 e8 12	 shr	 eax, 18
  000bb	8b 4c 24 20	 mov	 ecx, DWORD PTR _Res$[rsp]
  000bf	33 c8		 xor	 ecx, eax
  000c1	8b c1		 mov	 eax, ecx
  000c3	89 44 24 20	 mov	 DWORD PTR _Res$[rsp], eax
; Line 1198
  000c7	8b 44 24 20	 mov	 eax, DWORD PTR _Res$[rsp]
; Line 1199
  000cb	48 83 c4 30	 add	 rsp, 48			; 00000030H
  000cf	5f		 pop	 rdi
  000d0	c3		 ret	 0
??R?$mersenne_twister@I$0CA@$0CHA@$0BIN@$0BP@$0JJAILANP@$0L@$06$0JNCMFGIA@$0P@$0OPMGAAAA@$0BC@@std@@QEAAIXZ ENDP ; std::mersenne_twister<unsigned int,32,624,397,31,2567483615,11,7,2636928640,15,4022730752,18>::operator()
_TEXT	ENDS
; Function compile flags: /Odtp /RTCsu
;	COMDAT ?seed@?$mersenne_twister@I$0CA@$0CHA@$0BIN@$0BP@$0JJAILANP@$0L@$06$0JNCMFGIA@$0P@$0OPMGAAAA@$0BC@@std@@QEAAXII@Z
_TEXT	SEGMENT
_Prev$ = 0
_Ix$1 = 8
tv85 = 16
this$ = 48
_Xx0$ = 56
_Fx$ = 64
?seed@?$mersenne_twister@I$0CA@$0CHA@$0BIN@$0BP@$0JJAILANP@$0L@$06$0JNCMFGIA@$0P@$0OPMGAAAA@$0BC@@std@@QEAAXII@Z PROC ; std::mersenne_twister<unsigned int,32,624,397,31,2567483615,11,7,2636928640,15,4022730752,18>::seed, COMDAT
; File C:\Program Files\Microsoft Visual Studio\2022\Community\VC\Tools\MSVC\14.38.33130\include\random
; Line 1127
$LN6:
  00000	44 89 44 24 18	 mov	 DWORD PTR [rsp+24], r8d
  00005	89 54 24 10	 mov	 DWORD PTR [rsp+16], edx
  00009	48 89 4c 24 08	 mov	 QWORD PTR [rsp+8], rcx
  0000e	57		 push	 rdi
  0000f	48 83 ec 20	 sub	 rsp, 32			; 00000020H
; Line 1129
  00013	b8 04 00 00 00	 mov	 eax, 4
  00018	48 6b c0 00	 imul	 rax, rax, 0
  0001c	48 8b 4c 24 30	 mov	 rcx, QWORD PTR this$[rsp]
  00021	8b 54 24 38	 mov	 edx, DWORD PTR _Xx0$[rsp]
  00025	89 54 01 04	 mov	 DWORD PTR [rcx+rax+4], edx
  00029	8b 44 24 38	 mov	 eax, DWORD PTR _Xx0$[rsp]
  0002d	89 04 24	 mov	 DWORD PTR _Prev$[rsp], eax
; Line 1130
  00030	48 c7 44 24 08
	01 00 00 00	 mov	 QWORD PTR _Ix$1[rsp], 1
  00039	eb 0d		 jmp	 SHORT $LN4@seed
$LN2@seed:
  0003b	48 8b 44 24 08	 mov	 rax, QWORD PTR _Ix$1[rsp]
  00040	48 ff c0	 inc	 rax
  00043	48 89 44 24 08	 mov	 QWORD PTR _Ix$1[rsp], rax
$LN4@seed:
  00048	48 81 7c 24 08
	70 02 00 00	 cmp	 QWORD PTR _Ix$1[rsp], 624 ; 00000270H
  00051	73 4b		 jae	 SHORT $LN3@seed
; Line 1131
  00053	8b 04 24	 mov	 eax, DWORD PTR _Prev$[rsp]
  00056	c1 e8 1e	 shr	 eax, 30
  00059	8b 0c 24	 mov	 ecx, DWORD PTR _Prev$[rsp]
  0005c	33 c8		 xor	 ecx, eax
  0005e	8b c1		 mov	 eax, ecx
  00060	8b 4c 24 40	 mov	 ecx, DWORD PTR _Fx$[rsp]
  00064	0f af c8	 imul	 ecx, eax
  00067	8b c1		 mov	 eax, ecx
  00069	8b c0		 mov	 eax, eax
  0006b	48 8b 4c 24 08	 mov	 rcx, QWORD PTR _Ix$1[rsp]
  00070	48 03 c8	 add	 rcx, rax
  00073	48 8b c1	 mov	 rax, rcx
  00076	b9 ff ff ff ff	 mov	 ecx, -1			; ffffffffH
  0007b	48 23 c1	 and	 rax, rcx
  0007e	48 89 44 24 10	 mov	 QWORD PTR tv85[rsp], rax
  00083	48 8b 44 24 30	 mov	 rax, QWORD PTR this$[rsp]
  00088	48 8b 4c 24 08	 mov	 rcx, QWORD PTR _Ix$1[rsp]
  0008d	8b 54 24 10	 mov	 edx, DWORD PTR tv85[rsp]
  00091	89 54 88 04	 mov	 DWORD PTR [rax+rcx*4+4], edx
  00095	8b 44 24 10	 mov	 eax, DWORD PTR tv85[rsp]
  00099	89 04 24	 mov	 DWORD PTR _Prev$[rsp], eax
; Line 1132
  0009c	eb 9d		 jmp	 SHORT $LN2@seed
$LN3@seed:
; Line 1134
  0009e	48 8b 44 24 30	 mov	 rax, QWORD PTR this$[rsp]
  000a3	c7 00 70 02 00
	00		 mov	 DWORD PTR [rax], 624	; 00000270H
; Line 1135
  000a9	48 83 c4 20	 add	 rsp, 32			; 00000020H
  000ad	5f		 pop	 rdi
  000ae	c3		 ret	 0
?seed@?$mersenne_twister@I$0CA@$0CHA@$0BIN@$0BP@$0JJAILANP@$0L@$06$0JNCMFGIA@$0P@$0OPMGAAAA@$0BC@@std@@QEAAXII@Z ENDP ; std::mersenne_twister<unsigned int,32,624,397,31,2567483615,11,7,2636928640,15,4022730752,18>::seed
_TEXT	ENDS
; Function compile flags: /Odtp /RTCsu
;	COMDAT ??0?$mersenne_twister@I$0CA@$0CHA@$0BIN@$0BP@$0JJAILANP@$0L@$06$0JNCMFGIA@$0P@$0OPMGAAAA@$0BC@@std@@QEAA@III@Z
_TEXT	SEGMENT
this$ = 48
_Xx0$ = 56
_Dxarg$ = 64
_Fxarg$ = 72
??0?$mersenne_twister@I$0CA@$0CHA@$0BIN@$0BP@$0JJAILANP@$0L@$06$0JNCMFGIA@$0P@$0OPMGAAAA@$0BC@@std@@QEAA@III@Z PROC ; std::mersenne_twister<unsigned int,32,624,397,31,2567483615,11,7,2636928640,15,4022730752,18>::mersenne_twister<unsigned int,32,624,397,31,2567483615,11,7,2636928640,15,4022730752,18>, COMDAT
; File C:\Program Files\Microsoft Visual Studio\2022\Community\VC\Tools\MSVC\14.38.33130\include\random
; Line 1117
$LN3:
  00000	44 89 4c 24 20	 mov	 DWORD PTR [rsp+32], r9d
  00005	44 89 44 24 18	 mov	 DWORD PTR [rsp+24], r8d
  0000a	89 54 24 10	 mov	 DWORD PTR [rsp+16], edx
  0000e	48 89 4c 24 08	 mov	 QWORD PTR [rsp+8], rcx
  00013	57		 push	 rdi
  00014	48 83 ec 20	 sub	 rsp, 32			; 00000020H
; Line 1118
  00018	48 8b 44 24 30	 mov	 rax, QWORD PTR this$[rsp]
  0001d	8b 4c 24 40	 mov	 ecx, DWORD PTR _Dxarg$[rsp]
  00021	89 88 84 13 00
	00		 mov	 DWORD PTR [rax+4996], ecx
; Line 1119
  00027	44 8b 44 24 48	 mov	 r8d, DWORD PTR _Fxarg$[rsp]
  0002c	8b 54 24 38	 mov	 edx, DWORD PTR _Xx0$[rsp]
  00030	48 8b 4c 24 30	 mov	 rcx, QWORD PTR this$[rsp]
  00035	e8 00 00 00 00	 call	 ?seed@?$mersenne_twister@I$0CA@$0CHA@$0BIN@$0BP@$0JJAILANP@$0L@$06$0JNCMFGIA@$0P@$0OPMGAAAA@$0BC@@std@@QEAAXII@Z ; std::mersenne_twister<unsigned int,32,624,397,31,2567483615,11,7,2636928640,15,4022730752,18>::seed
; Line 1120
  0003a	48 8b 44 24 30	 mov	 rax, QWORD PTR this$[rsp]
  0003f	48 83 c4 20	 add	 rsp, 32			; 00000020H
  00043	5f		 pop	 rdi
  00044	c3		 ret	 0
??0?$mersenne_twister@I$0CA@$0CHA@$0BIN@$0BP@$0JJAILANP@$0L@$06$0JNCMFGIA@$0P@$0OPMGAAAA@$0BC@@std@@QEAA@III@Z ENDP ; std::mersenne_twister<unsigned int,32,624,397,31,2567483615,11,7,2636928640,15,4022730752,18>::mersenne_twister<unsigned int,32,624,397,31,2567483615,11,7,2636928640,15,4022730752,18>
_TEXT	ENDS
; Function compile flags: /Odtp /RTCsu
;	COMDAT ??Rrandom_device@std@@QEAAIXZ
_TEXT	SEGMENT
this$ = 48
??Rrandom_device@std@@QEAAIXZ PROC			; std::random_device::operator(), COMDAT
; File C:\Program Files\Microsoft Visual Studio\2022\Community\VC\Tools\MSVC\14.38.33130\include\random
; Line 5215
$LN3:
  00000	48 89 4c 24 08	 mov	 QWORD PTR [rsp+8], rcx
  00005	57		 push	 rdi
  00006	48 83 ec 20	 sub	 rsp, 32			; 00000020H
; Line 5216
  0000a	e8 00 00 00 00	 call	 ?_Random_device@std@@YAIXZ ; std::_Random_device
; Line 5217
  0000f	48 83 c4 20	 add	 rsp, 32			; 00000020H
  00013	5f		 pop	 rdi
  00014	c3		 ret	 0
??Rrandom_device@std@@QEAAIXZ ENDP			; std::random_device::operator()
_TEXT	ENDS
; Function compile flags: /Odtp /RTCsu
;	COMDAT ?eof@?$_Narrow_char_traits@DH@std@@SAHXZ
_TEXT	SEGMENT
?eof@?$_Narrow_char_traits@DH@std@@SAHXZ PROC		; std::_Narrow_char_traits<char,int>::eof, COMDAT
; File C:\Program Files\Microsoft Visual Studio\2022\Community\VC\Tools\MSVC\14.38.33130\include\xstring
; Line 471
$LN3:
  00000	40 57		 push	 rdi
; Line 472
  00002	b8 ff ff ff ff	 mov	 eax, -1
; Line 473
  00007	5f		 pop	 rdi
  00008	c3		 ret	 0
?eof@?$_Narrow_char_traits@DH@std@@SAHXZ ENDP		; std::_Narrow_char_traits<char,int>::eof
_TEXT	ENDS
; Function compile flags: /Odtp /RTCsu
;	COMDAT ?eq_int_type@?$_Narrow_char_traits@DH@std@@SA_NHH@Z
_TEXT	SEGMENT
tv65 = 0
_Left$ = 32
_Right$ = 40
?eq_int_type@?$_Narrow_char_traits@DH@std@@SA_NHH@Z PROC ; std::_Narrow_char_traits<char,int>::eq_int_type, COMDAT
; File C:\Program Files\Microsoft Visual Studio\2022\Community\VC\Tools\MSVC\14.38.33130\include\xstring
; Line 463
$LN5:
  00000	89 54 24 10	 mov	 DWORD PTR [rsp+16], edx
  00004	89 4c 24 08	 mov	 DWORD PTR [rsp+8], ecx
  00008	57		 push	 rdi
  00009	48 83 ec 10	 sub	 rsp, 16
; Line 464
  0000d	8b 44 24 28	 mov	 eax, DWORD PTR _Right$[rsp]
  00011	39 44 24 20	 cmp	 DWORD PTR _Left$[rsp], eax
  00015	75 09		 jne	 SHORT $LN3@eq_int_typ
  00017	c7 04 24 01 00
	00 00		 mov	 DWORD PTR tv65[rsp], 1
  0001e	eb 07		 jmp	 SHORT $LN4@eq_int_typ
$LN3@eq_int_typ:
  00020	c7 04 24 00 00
	00 00		 mov	 DWORD PTR tv65[rsp], 0
$LN4@eq_int_typ:
  00027	0f b6 04 24	 movzx	 eax, BYTE PTR tv65[rsp]
; Line 465
  0002b	48 83 c4 10	 add	 rsp, 16
  0002f	5f		 pop	 rdi
  00030	c3		 ret	 0
?eq_int_type@?$_Narrow_char_traits@DH@std@@SA_NHH@Z ENDP ; std::_Narrow_char_traits<char,int>::eq_int_type
_TEXT	ENDS
; Function compile flags: /Odtp /RTCsu
;	COMDAT ?length@?$_Narrow_char_traits@DH@std@@SA_KQEBD@Z
_TEXT	SEGMENT
tv67 = 0
tv68 = 8
_First$ = 32
?length@?$_Narrow_char_traits@DH@std@@SA_KQEBD@Z PROC	; std::_Narrow_char_traits<char,int>::length, COMDAT
; File C:\Program Files\Microsoft Visual Studio\2022\Community\VC\Tools\MSVC\14.38.33130\include\xstring
; Line 385
$LN4:
  00000	48 89 4c 24 08	 mov	 QWORD PTR [rsp+8], rcx
  00005	57		 push	 rdi
  00006	48 83 ec 10	 sub	 rsp, 16
; Line 398
  0000a	48 8b 44 24 20	 mov	 rax, QWORD PTR _First$[rsp]
  0000f	48 89 04 24	 mov	 QWORD PTR tv67[rsp], rax
  00013	48 c7 44 24 08
	ff ff ff ff	 mov	 QWORD PTR tv68[rsp], -1
$LL3@length:
  0001c	48 ff 44 24 08	 inc	 QWORD PTR tv68[rsp]
  00021	48 8b 04 24	 mov	 rax, QWORD PTR tv67[rsp]
  00025	48 8b 4c 24 08	 mov	 rcx, QWORD PTR tv68[rsp]
  0002a	80 3c 08 00	 cmp	 BYTE PTR [rax+rcx], 0
  0002e	75 ec		 jne	 SHORT $LL3@length
  00030	48 8b 44 24 08	 mov	 rax, QWORD PTR tv68[rsp]
; Line 403
  00035	48 83 c4 10	 add	 rsp, 16
  00039	5f		 pop	 rdi
  0003a	c3		 ret	 0
?length@?$_Narrow_char_traits@DH@std@@SA_KQEBD@Z ENDP	; std::_Narrow_char_traits<char,int>::length
_TEXT	ENDS
; Function compile flags: /Odtp /RTCsu
;	COMDAT ?randomInt@LifeExe@@YAHHH@Z
_TEXT	SEGMENT
rd$ = 36
gen$ = 80
dist$ = 5112
__$ArrayPad$ = 5136
min$ = 5168
max$ = 5176
?randomInt@LifeExe@@YAHHH@Z PROC			; LifeExe::randomInt, COMDAT
; File C:\Users\batma\Desktop\FIghtClub\Source\Functions\Math.cpp
; Line 22
$LN3:
  00000	89 54 24 10	 mov	 DWORD PTR [rsp+16], edx
  00004	89 4c 24 08	 mov	 DWORD PTR [rsp+8], ecx
  00008	57		 push	 rdi
  00009	b8 20 14 00 00	 mov	 eax, 5152		; 00001420H
  0000e	e8 00 00 00 00	 call	 __chkstk
  00013	48 2b e0	 sub	 rsp, rax
  00016	48 8d 7c 24 20	 lea	 rdi, QWORD PTR [rsp+32]
  0001b	b9 00 05 00 00	 mov	 ecx, 1280		; 00000500H
  00020	b8 cc cc cc cc	 mov	 eax, -858993460		; ccccccccH
  00025	f3 ab		 rep stosd
  00027	8b 8c 24 30 14
	00 00		 mov	 ecx, DWORD PTR [rsp+5168]
  0002e	48 8b 05 00 00
	00 00		 mov	 rax, QWORD PTR __security_cookie
  00035	48 33 c4	 xor	 rax, rsp
  00038	48 89 84 24 10
	14 00 00	 mov	 QWORD PTR __$ArrayPad$[rsp], rax
; Line 24
  00040	48 8d 4c 24 24	 lea	 rcx, QWORD PTR rd$[rsp]
  00045	e8 00 00 00 00	 call	 ??Rrandom_device@std@@QEAAIXZ ; std::random_device::operator()
  0004a	8b d0		 mov	 edx, eax
  0004c	48 8d 4c 24 50	 lea	 rcx, QWORD PTR gen$[rsp]
  00051	e8 00 00 00 00	 call	 ??0?$mersenne_twister_engine@I$0CA@$0CHA@$0BIN@$0BP@$0JJAILANP@$0L@$0PPPPPPPP@$06$0JNCMFGIA@$0P@$0OPMGAAAA@$0BC@$0GMAHIJGF@@std@@QEAA@I@Z ; std::mersenne_twister_engine<unsigned int,32,624,397,31,2567483615,11,4294967295,7,2636928640,15,4022730752,18,1812433253>::mersenne_twister_engine<unsigned int,32,624,397,31,2567483615,11,4294967295,7,2636928640,15,4022730752,18,1812433253>
; Line 26
  00056	44 8b 84 24 38
	14 00 00	 mov	 r8d, DWORD PTR max$[rsp]
  0005e	8b 94 24 30 14
	00 00		 mov	 edx, DWORD PTR min$[rsp]
  00065	48 8d 8c 24 f8
	13 00 00	 lea	 rcx, QWORD PTR dist$[rsp]
  0006d	e8 00 00 00 00	 call	 ??0?$uniform_int_distribution@H@std@@QEAA@HH@Z ; std::uniform_int_distribution<int>::uniform_int_distribution<int>
; Line 28
  00072	48 8d 54 24 50	 lea	 rdx, QWORD PTR gen$[rsp]
  00077	48 8d 8c 24 f8
	13 00 00	 lea	 rcx, QWORD PTR dist$[rsp]
  0007f	e8 00 00 00 00	 call	 ??$?RV?$mersenne_twister_engine@I$0CA@$0CHA@$0BIN@$0BP@$0JJAILANP@$0L@$0PPPPPPPP@$06$0JNCMFGIA@$0P@$0OPMGAAAA@$0BC@$0GMAHIJGF@@std@@@?$uniform_int@H@std@@QEAAHAEAV?$mersenne_twister_engine@I$0CA@$0CHA@$0BIN@$0BP@$0JJAILANP@$0L@$0PPPPPPPP@$06$0JNCMFGIA@$0P@$0OPMGAAAA@$0BC@$0GMAHIJGF@@1@@Z ; std::uniform_int<int>::operator()<std::mersenne_twister_engine<unsigned int,32,624,397,31,2567483615,11,4294967295,7,2636928640,15,4022730752,18,1812433253> >
; Line 29
  00084	48 8b f8	 mov	 rdi, rax
  00087	48 8b cc	 mov	 rcx, rsp
  0008a	48 8d 15 00 00
	00 00		 lea	 rdx, OFFSET FLAT:?randomInt@LifeExe@@YAHHH@Z$rtcFrameData
  00091	e8 00 00 00 00	 call	 _RTC_CheckStackVars
  00096	48 8b c7	 mov	 rax, rdi
  00099	48 8b 8c 24 10
	14 00 00	 mov	 rcx, QWORD PTR __$ArrayPad$[rsp]
  000a1	48 33 cc	 xor	 rcx, rsp
  000a4	e8 00 00 00 00	 call	 __security_check_cookie
  000a9	48 81 c4 20 14
	00 00		 add	 rsp, 5152		; 00001420H
  000b0	5f		 pop	 rdi
  000b1	c3		 ret	 0
?randomInt@LifeExe@@YAHHH@Z ENDP			; LifeExe::randomInt
_TEXT	ENDS
; Function compile flags: /Odtp /RTCsu
_TEXT	SEGMENT
tv84 = 32
tv82 = 40
tv89 = 48
this$ = 80
damage$ = 88
?takeDamage@Character@@QEAAXH@Z PROC			; Character::takeDamage
; File C:\Users\batma\Desktop\FIghtClub\Source\Game\Character.cpp
; Line 46
$LN4:
  00000	89 54 24 10	 mov	 DWORD PTR [rsp+16], edx
  00004	48 89 4c 24 08	 mov	 QWORD PTR [rsp+8], rcx
  00009	57		 push	 rdi
  0000a	48 83 ec 40	 sub	 rsp, 64			; 00000040H
; Line 47
  0000e	48 8b 44 24 50	 mov	 rax, QWORD PTR this$[rsp]
  00013	8b 4c 24 58	 mov	 ecx, DWORD PTR damage$[rsp]
  00017	8b 40 10	 mov	 eax, DWORD PTR [rax+16]
  0001a	2b c1		 sub	 eax, ecx
  0001c	48 8b 4c 24 50	 mov	 rcx, QWORD PTR this$[rsp]
  00021	89 41 10	 mov	 DWORD PTR [rcx+16], eax
; Line 48
  00024	48 8b 44 24 50	 mov	 rax, QWORD PTR this$[rsp]
  00029	83 78 10 00	 cmp	 DWORD PTR [rax+16], 0
  0002d	7d 0c		 jge	 SHORT $LN2@takeDamage
  0002f	48 8b 44 24 50	 mov	 rax, QWORD PTR this$[rsp]
  00034	c7 40 10 00 00
	00 00		 mov	 DWORD PTR [rax+16], 0
$LN2@takeDamage:
; Line 50
  0003b	48 8b 44 24 50	 mov	 rax, QWORD PTR this$[rsp]
  00040	48 8b 10	 mov	 rdx, QWORD PTR [rax]
  00043	48 8b 0d 00 00
	00 00		 mov	 rcx, QWORD PTR __imp_?cout@std@@3V?$basic_ostream@DU?$char_traits@D@std@@@1@A
  0004a	e8 00 00 00 00	 call	 ??$?6U?$char_traits@D@std@@@std@@YAAEAV?$basic_ostream@DU?$char_traits@D@std@@@0@AEAV10@PEBD@Z ; std::operator<<<std::char_traits<char> >
  0004f	48 8d 15 00 00
	00 00		 lea	 rdx, OFFSET FLAT:$SG58805
  00056	48 8b c8	 mov	 rcx, rax
  00059	e8 00 00 00 00	 call	 ??$?6U?$char_traits@D@std@@@std@@YAAEAV?$basic_ostream@DU?$char_traits@D@std@@@0@AEAV10@PEBD@Z ; std::operator<<<std::char_traits<char> >
  0005e	48 89 44 24 20	 mov	 QWORD PTR tv84[rsp], rax
  00063	48 8b 44 24 50	 mov	 rax, QWORD PTR this$[rsp]
  00068	8b 40 10	 mov	 eax, DWORD PTR [rax+16]
  0006b	89 44 24 28	 mov	 DWORD PTR tv82[rsp], eax
  0006f	8b 54 24 28	 mov	 edx, DWORD PTR tv82[rsp]
  00073	48 8b 4c 24 20	 mov	 rcx, QWORD PTR tv84[rsp]
  00078	ff 15 00 00 00
	00		 call	 QWORD PTR __imp_??6?$basic_ostream@DU?$char_traits@D@std@@@std@@QEAAAEAV01@H@Z
  0007e	48 89 44 24 30	 mov	 QWORD PTR tv89[rsp], rax
  00083	48 8d 15 00 00
	00 00		 lea	 rdx, OFFSET FLAT:??$endl@DU?$char_traits@D@std@@@std@@YAAEAV?$basic_ostream@DU?$char_traits@D@std@@@0@AEAV10@@Z ; std::endl<char,std::char_traits<char> >
  0008a	48 8b 4c 24 30	 mov	 rcx, QWORD PTR tv89[rsp]
  0008f	ff 15 00 00 00
	00		 call	 QWORD PTR __imp_??6?$basic_ostream@DU?$char_traits@D@std@@@std@@QEAAAEAV01@P6AAEAV01@AEAV01@@Z@Z
; Line 51
  00095	48 83 c4 40	 add	 rsp, 64			; 00000040H
  00099	5f		 pop	 rdi
  0009a	c3		 ret	 0
?takeDamage@Character@@QEAAXH@Z ENDP			; Character::takeDamage
_TEXT	ENDS
; Function compile flags: /Odtp /RTCsu
_TEXT	SEGMENT
fired$ = 32
damage$1 = 36
tv83 = 40
tv88 = 48
tv133 = 56
this$ = 80
target$ = 88
?attack@Character@@QEAA_NAEAV1@@Z PROC			; Character::attack
; File C:\Users\batma\Desktop\FIghtClub\Source\Game\Character.cpp
; Line 29
$LN5:
  00000	48 89 54 24 10	 mov	 QWORD PTR [rsp+16], rdx
  00005	48 89 4c 24 08	 mov	 QWORD PTR [rsp+8], rcx
  0000a	57		 push	 rdi
  0000b	48 83 ec 40	 sub	 rsp, 64			; 00000040H
; Line 30
  0000f	48 8b 44 24 50	 mov	 rax, QWORD PTR this$[rsp]
  00014	48 8b 48 08	 mov	 rcx, QWORD PTR [rax+8]
  00018	e8 00 00 00 00	 call	 ?fire@Weapon@@QEAA_NXZ	; Weapon::fire
  0001d	88 44 24 20	 mov	 BYTE PTR fired$[rsp], al
; Line 31
  00021	0f b6 44 24 20	 movzx	 eax, BYTE PTR fired$[rsp]
  00026	85 c0		 test	 eax, eax
  00028	74 70		 je	 SHORT $LN2@attack
; Line 33
  0002a	48 8b 44 24 50	 mov	 rax, QWORD PTR this$[rsp]
  0002f	48 8b 48 08	 mov	 rcx, QWORD PTR [rax+8]
  00033	e8 00 00 00 00	 call	 ?damage@Weapon@@QEBAHXZ	; Weapon::damage
  00038	89 44 24 24	 mov	 DWORD PTR damage$1[rsp], eax
; Line 34
  0003c	48 8b 44 24 50	 mov	 rax, QWORD PTR this$[rsp]
  00041	48 8b 10	 mov	 rdx, QWORD PTR [rax]
  00044	48 8b 0d 00 00
	00 00		 mov	 rcx, QWORD PTR __imp_?cout@std@@3V?$basic_ostream@DU?$char_traits@D@std@@@1@A
  0004b	e8 00 00 00 00	 call	 ??$?6U?$char_traits@D@std@@@std@@YAAEAV?$basic_ostream@DU?$char_traits@D@std@@@0@AEAV10@PEBD@Z ; std::operator<<<std::char_traits<char> >
  00050	48 8d 15 00 00
	00 00		 lea	 rdx, OFFSET FLAT:$SG58793
  00057	48 8b c8	 mov	 rcx, rax
  0005a	e8 00 00 00 00	 call	 ??$?6U?$char_traits@D@std@@@std@@YAAEAV?$basic_ostream@DU?$char_traits@D@std@@@0@AEAV10@PEBD@Z ; std::operator<<<std::char_traits<char> >
  0005f	48 89 44 24 28	 mov	 QWORD PTR tv83[rsp], rax
  00064	8b 54 24 24	 mov	 edx, DWORD PTR damage$1[rsp]
  00068	48 8b 4c 24 28	 mov	 rcx, QWORD PTR tv83[rsp]
  0006d	ff 15 00 00 00
	00		 call	 QWORD PTR __imp_??6?$basic_ostream@DU?$char_traits@D@std@@@std@@QEAAAEAV01@H@Z
  00073	48 89 44 24 30	 mov	 QWORD PTR tv88[rsp], rax
  00078	48 8d 15 00 00
	00 00		 lea	 rdx, OFFSET FLAT:??$endl@DU?$char_traits@D@std@@@std@@YAAEAV?$basic_ostream@DU?$char_traits@D@std@@@0@AEAV10@@Z ; std::endl<char,std::char_traits<char> >
  0007f	48 8b 4c 24 30	 mov	 rcx, QWORD PTR tv88[rsp]
  00084	ff 15 00 00 00
	00		 call	 QWORD PTR __imp_??6?$basic_ostream@DU?$char_traits@D@std@@@std@@QEAAAEAV01@P6AAEAV01@AEAV01@@Z@Z
; Line 35
  0008a	8b 54 24 24	 mov	 edx, DWORD PTR damage$1[rsp]
  0008e	48 8b 4c 24 58	 mov	 rcx, QWORD PTR target$[rsp]
  00093	e8 00 00 00 00	 call	 ?takeDamage@Character@@QEAAXH@Z ; Character::takeDamage
; Line 36
  00098	eb 3a		 jmp	 SHORT $LN3@attack
$LN2@attack:
; Line 39
  0009a	48 8b 44 24 50	 mov	 rax, QWORD PTR this$[rsp]
  0009f	48 8b 10	 mov	 rdx, QWORD PTR [rax]
  000a2	48 8b 0d 00 00
	00 00		 mov	 rcx, QWORD PTR __imp_?cout@std@@3V?$basic_ostream@DU?$char_traits@D@std@@@1@A
  000a9	e8 00 00 00 00	 call	 ??$?6U?$char_traits@D@std@@@std@@YAAEAV?$basic_ostream@DU?$char_traits@D@std@@@0@AEAV10@PEBD@Z ; std::operator<<<std::char_traits<char> >
  000ae	48 8d 15 00 00
	00 00		 lea	 rdx, OFFSET FLAT:$SG58794
  000b5	48 8b c8	 mov	 rcx, rax
  000b8	e8 00 00 00 00	 call	 ??$?6U?$char_traits@D@std@@@std@@YAAEAV?$basic_ostream@DU?$char_traits@D@std@@@0@AEAV10@PEBD@Z ; std::operator<<<std::char_traits<char> >
  000bd	48 89 44 24 38	 mov	 QWORD PTR tv133[rsp], rax
  000c2	48 8d 15 00 00
	00 00		 lea	 rdx, OFFSET FLAT:??$endl@DU?$char_traits@D@std@@@std@@YAAEAV?$basic_ostream@DU?$char_traits@D@std@@@0@AEAV10@@Z ; std::endl<char,std::char_traits<char> >
  000c9	48 8b 4c 24 38	 mov	 rcx, QWORD PTR tv133[rsp]
  000ce	ff 15 00 00 00
	00		 call	 QWORD PTR __imp_??6?$basic_ostream@DU?$char_traits@D@std@@@std@@QEAAAEAV01@P6AAEAV01@AEAV01@@Z@Z
$LN3@attack:
; Line 42
  000d4	0f b6 44 24 20	 movzx	 eax, BYTE PTR fired$[rsp]
; Line 43
  000d9	48 83 c4 40	 add	 rsp, 64			; 00000040H
  000dd	5f		 pop	 rdi
  000de	c3		 ret	 0
?attack@Character@@QEAA_NAEAV1@@Z ENDP			; Character::attack
_TEXT	ENDS
; Function compile flags: /Odtp /RTCsu
_TEXT	SEGMENT
tv66 = 0
this$ = 32
?dead@Character@@QEBA_NXZ PROC				; Character::dead
; File C:\Users\batma\Desktop\FIghtClub\Source\Game\Character.cpp
; Line 24
$LN5:
  00000	48 89 4c 24 08	 mov	 QWORD PTR [rsp+8], rcx
  00005	57		 push	 rdi
  00006	48 83 ec 10	 sub	 rsp, 16
; Line 25
  0000a	48 8b 44 24 20	 mov	 rax, QWORD PTR this$[rsp]
  0000f	83 78 10 00	 cmp	 DWORD PTR [rax+16], 0
  00013	75 09		 jne	 SHORT $LN3@dead
  00015	c7 04 24 01 00
	00 00		 mov	 DWORD PTR tv66[rsp], 1
  0001c	eb 07		 jmp	 SHORT $LN4@dead
$LN3@dead:
  0001e	c7 04 24 00 00
	00 00		 mov	 DWORD PTR tv66[rsp], 0
$LN4@dead:
  00025	0f b6 04 24	 movzx	 eax, BYTE PTR tv66[rsp]
; Line 26
  00029	48 83 c4 10	 add	 rsp, 16
  0002d	5f		 pop	 rdi
  0002e	c3		 ret	 0
?dead@Character@@QEBA_NXZ ENDP				; Character::dead
_TEXT	ENDS
; Function compile flags: /Odtp /RTCsu
_TEXT	SEGMENT
this$ = 16
?name@Character@@QEBAPEBDXZ PROC			; Character::name
; File C:\Users\batma\Desktop\FIghtClub\Source\Game\Character.cpp
; Line 19
$LN3:
  00000	48 89 4c 24 08	 mov	 QWORD PTR [rsp+8], rcx
  00005	57		 push	 rdi
; Line 20
  00006	48 8b 44 24 10	 mov	 rax, QWORD PTR this$[rsp]
  0000b	48 8b 00	 mov	 rax, QWORD PTR [rax]
; Line 21
  0000e	5f		 pop	 rdi
  0000f	c3		 ret	 0
?name@Character@@QEBAPEBDXZ ENDP			; Character::name
_TEXT	ENDS
; Function compile flags: /Odtp /RTCsu
_TEXT	SEGMENT
$T1 = 32
this$ = 64
??1Character@@QEAA@XZ PROC				; Character::~Character
; File C:\Users\batma\Desktop\FIghtClub\Source\Game\Character.cpp
; Line 13
$LN3:
  00000	48 89 4c 24 08	 mov	 QWORD PTR [rsp+8], rcx
  00005	57		 push	 rdi
  00006	48 83 ec 30	 sub	 rsp, 48			; 00000030H
; Line 14
  0000a	48 8b 44 24 40	 mov	 rax, QWORD PTR this$[rsp]
  0000f	48 8b 40 08	 mov	 rax, QWORD PTR [rax+8]
  00013	48 89 44 24 20	 mov	 QWORD PTR $T1[rsp], rax
  00018	ba 04 00 00 00	 mov	 edx, 4
  0001d	48 8b 4c 24 20	 mov	 rcx, QWORD PTR $T1[rsp]
  00022	e8 00 00 00 00	 call	 ??3@YAXPEAX_K@Z		; operator delete
; Line 15
  00027	48 8b 44 24 40	 mov	 rax, QWORD PTR this$[rsp]
  0002c	48 c7 40 08 00
	00 00 00	 mov	 QWORD PTR [rax+8], 0
; Line 16
  00034	48 83 c4 30	 add	 rsp, 48			; 00000030H
  00038	5f		 pop	 rdi
  00039	c3		 ret	 0
??1Character@@QEAA@XZ ENDP				; Character::~Character
_TEXT	ENDS
; Function compile flags: /Odtp /RTCsu
_TEXT	SEGMENT
bulletsCount$ = 32
$T1 = 40
$T2 = 48
tv82 = 56
this$ = 80
name$ = 88
??0Character@@QEAA@PEBD@Z PROC				; Character::Character
; File C:\Users\batma\Desktop\FIghtClub\Source\Game\Character.cpp
; Line 7
$LN6:
  00000	48 89 54 24 10	 mov	 QWORD PTR [rsp+16], rdx
  00005	48 89 4c 24 08	 mov	 QWORD PTR [rsp+8], rcx
  0000a	57		 push	 rdi
  0000b	48 83 ec 40	 sub	 rsp, 64			; 00000040H
; Line 6
  0000f	48 8b 44 24 50	 mov	 rax, QWORD PTR this$[rsp]
  00014	48 8b 4c 24 58	 mov	 rcx, QWORD PTR name$[rsp]
  00019	48 89 08	 mov	 QWORD PTR [rax], rcx
; File C:\Users\batma\Desktop\FIghtClub\Source\Game\Character.h
; Line 27
  0001c	48 8b 44 24 50	 mov	 rax, QWORD PTR this$[rsp]
  00021	c7 40 10 64 00
	00 00		 mov	 DWORD PTR [rax+16], 100	; 00000064H
; File C:\Users\batma\Desktop\FIghtClub\Source\Game\Character.cpp
; Line 8
  00028	ba 0a 00 00 00	 mov	 edx, 10
  0002d	b9 01 00 00 00	 mov	 ecx, 1
  00032	e8 00 00 00 00	 call	 ?randomInt@LifeExe@@YAHHH@Z ; LifeExe::randomInt
  00037	89 44 24 20	 mov	 DWORD PTR bulletsCount$[rsp], eax
; Line 9
  0003b	b9 04 00 00 00	 mov	 ecx, 4
  00040	e8 00 00 00 00	 call	 ??2@YAPEAX_K@Z		; operator new
  00045	48 89 44 24 30	 mov	 QWORD PTR $T2[rsp], rax
  0004a	48 83 7c 24 30
	00		 cmp	 QWORD PTR $T2[rsp], 0
  00050	74 15		 je	 SHORT $LN3@Character
  00052	8b 54 24 20	 mov	 edx, DWORD PTR bulletsCount$[rsp]
  00056	48 8b 4c 24 30	 mov	 rcx, QWORD PTR $T2[rsp]
  0005b	e8 00 00 00 00	 call	 ??0Weapon@@QEAA@H@Z	; Weapon::Weapon
  00060	48 89 44 24 38	 mov	 QWORD PTR tv82[rsp], rax
  00065	eb 09		 jmp	 SHORT $LN4@Character
$LN3@Character:
  00067	48 c7 44 24 38
	00 00 00 00	 mov	 QWORD PTR tv82[rsp], 0
$LN4@Character:
  00070	48 8b 44 24 38	 mov	 rax, QWORD PTR tv82[rsp]
  00075	48 89 44 24 28	 mov	 QWORD PTR $T1[rsp], rax
  0007a	48 8b 44 24 50	 mov	 rax, QWORD PTR this$[rsp]
  0007f	48 8b 4c 24 28	 mov	 rcx, QWORD PTR $T1[rsp]
  00084	48 89 48 08	 mov	 QWORD PTR [rax+8], rcx
; Line 10
  00088	48 8b 44 24 50	 mov	 rax, QWORD PTR this$[rsp]
  0008d	48 83 c4 40	 add	 rsp, 64			; 00000040H
  00091	5f		 pop	 rdi
  00092	c3		 ret	 0
??0Character@@QEAA@PEBD@Z ENDP				; Character::Character
_TEXT	ENDS
; Function compile flags: /Odtp /RTCsu
text$x	SEGMENT
bulletsCount$ = 32
$T1 = 40
$T2 = 48
tv82 = 56
this$ = 80
name$ = 88
?dtor$0@?0???0Character@@QEAA@PEBD@Z@4HA PROC		; `Character::Character'::`1'::dtor$0
  00000	48 89 4c 24 08	 mov	 QWORD PTR [rsp+8], rcx
  00005	48 89 54 24 10	 mov	 QWORD PTR [rsp+16], rdx
  0000a	55		 push	 rbp
  0000b	57		 push	 rdi
  0000c	48 83 ec 28	 sub	 rsp, 40			; 00000028H
  00010	48 8b ea	 mov	 rbp, rdx
  00013	ba 04 00 00 00	 mov	 edx, 4
  00018	48 8b 4d 30	 mov	 rcx, QWORD PTR $T2[rbp]
  0001c	e8 00 00 00 00	 call	 ??3@YAXPEAX_K@Z		; operator delete
  00021	48 83 c4 28	 add	 rsp, 40			; 00000028H
  00025	5f		 pop	 rdi
  00026	5d		 pop	 rbp
  00027	c3		 ret	 0
?dtor$0@?0???0Character@@QEAA@PEBD@Z@4HA ENDP		; `Character::Character'::`1'::dtor$0
text$x	ENDS
; Function compile flags: /Odtp /RTCsu
;	COMDAT ?__empty_global_delete@@YAXPEAX_KW4align_val_t@std@@@Z
_TEXT	SEGMENT
__formal$ = 16
__formal$ = 24
__formal$ = 32
?__empty_global_delete@@YAXPEAX_KW4align_val_t@std@@@Z PROC ; __empty_global_delete, COMDAT
; File C:\Users\batma\Desktop\FIghtClub\Source\Game\Character.cpp
; Line 52
$LN3:
  00000	4c 89 44 24 18	 mov	 QWORD PTR [rsp+24], r8
  00005	48 89 54 24 10	 mov	 QWORD PTR [rsp+16], rdx
  0000a	48 89 4c 24 08	 mov	 QWORD PTR [rsp+8], rcx
  0000f	57		 push	 rdi
  00010	5f		 pop	 rdi
  00011	c3		 ret	 0
?__empty_global_delete@@YAXPEAX_KW4align_val_t@std@@@Z ENDP ; __empty_global_delete
_TEXT	ENDS
; Function compile flags: /Odtp /RTCsu
;	COMDAT ?__empty_global_delete@@YAXPEAXW4align_val_t@std@@@Z
_TEXT	SEGMENT
__formal$ = 16
__formal$ = 24
?__empty_global_delete@@YAXPEAXW4align_val_t@std@@@Z PROC ; __empty_global_delete, COMDAT
; File C:\Users\batma\Desktop\FIghtClub\Source\Game\Character.cpp
; Line 52
$LN3:
  00000	48 89 54 24 10	 mov	 QWORD PTR [rsp+16], rdx
  00005	48 89 4c 24 08	 mov	 QWORD PTR [rsp+8], rcx
  0000a	57		 push	 rdi
  0000b	5f		 pop	 rdi
  0000c	c3		 ret	 0
?__empty_global_delete@@YAXPEAXW4align_val_t@std@@@Z ENDP ; __empty_global_delete
_TEXT	ENDS
; Function compile flags: /Odtp /RTCsu
;	COMDAT ?__empty_global_delete@@YAXPEAX_K@Z
_TEXT	SEGMENT
__formal$ = 16
__formal$ = 24
?__empty_global_delete@@YAXPEAX_K@Z PROC		; __empty_global_delete, COMDAT
; File C:\Users\batma\Desktop\FIghtClub\Source\Game\Character.cpp
; Line 52
$LN3:
  00000	48 89 54 24 10	 mov	 QWORD PTR [rsp+16], rdx
  00005	48 89 4c 24 08	 mov	 QWORD PTR [rsp+8], rcx
  0000a	57		 push	 rdi
  0000b	5f		 pop	 rdi
  0000c	c3		 ret	 0
?__empty_global_delete@@YAXPEAX_K@Z ENDP		; __empty_global_delete
_TEXT	ENDS
; Function compile flags: /Odtp /RTCsu
;	COMDAT ?__empty_global_delete@@YAXPEAX@Z
_TEXT	SEGMENT
__formal$ = 16
?__empty_global_delete@@YAXPEAX@Z PROC			; __empty_global_delete, COMDAT
; File C:\Users\batma\Desktop\FIghtClub\Source\Game\Character.cpp
; Line 52
$LN3:
  00000	48 89 4c 24 08	 mov	 QWORD PTR [rsp+8], rcx
  00005	57		 push	 rdi
  00006	5f		 pop	 rdi
  00007	c3		 ret	 0
?__empty_global_delete@@YAXPEAX@Z ENDP			; __empty_global_delete
_TEXT	ENDS
END
