; Listing generated by Microsoft (R) Optimizing Compiler Version 19.38.33144.0 

include listing.inc

INCLUDELIB MSVCRTD
INCLUDELIB OLDNAMES

CONST	SEGMENT
$SG53845 DB	'Durden', 00H
	ORG $+1
$SG53846 DB	'Angel Face', 00H
	ORG $+5
$SG53847 DB	' ==============', 00H
$SG53848 DB	'============== Round ', 00H
	ORG $+2
$SG53850 DB	'============== GAME OVER ==============', 00H
$SG53851 DB	'Friendship wins!', 00H
	ORG $+7
$SG53853 DB	'============== GAME OVER ==============', 00H
$SG53854 DB	' is dead =(', 00H
	ORG $+4
$SG53855 DB	' wins !!!', 00H
	ORG $+14
$SG62658 DB	'C:\Program Files\Microsoft Visual Studio\2022\Community\'
	DB	'VC\Tools\MSVC\14.38.33130\include\xlocale', 00H
	ORG $+6
$SG65092 DB	'invalid argument', 00H
	ORG $+3
$SG65093 DB	'%s', 00H
	ORG $+1
$SG65094 DB	'C:\Program Files\Microsoft Visual Studio\2022\Community\'
	DB	'VC\Tools\MSVC\14.38.33130\include\xmemory', 00H
	ORG $+14
$SG65095 DB	'C', 00H, ':', 00H, '\', 00H, 'P', 00H, 'r', 00H, 'o', 00H
	DB	'g', 00H, 'r', 00H, 'a', 00H, 'm', 00H, ' ', 00H, 'F', 00H, 'i'
	DB	00H, 'l', 00H, 'e', 00H, 's', 00H, '\', 00H, 'M', 00H, 'i', 00H
	DB	'c', 00H, 'r', 00H, 'o', 00H, 's', 00H, 'o', 00H, 'f', 00H, 't'
	DB	00H, ' ', 00H, 'V', 00H, 'i', 00H, 's', 00H, 'u', 00H, 'a', 00H
	DB	'l', 00H, ' ', 00H, 'S', 00H, 't', 00H, 'u', 00H, 'd', 00H, 'i'
	DB	00H, 'o', 00H, '\', 00H, '2', 00H, '0', 00H, '2', 00H, '2', 00H
	DB	'\', 00H, 'C', 00H, 'o', 00H, 'm', 00H, 'm', 00H, 'u', 00H, 'n'
	DB	00H, 'i', 00H, 't', 00H, 'y', 00H, '\', 00H, 'V', 00H, 'C', 00H
	DB	'\', 00H, 'T', 00H, 'o', 00H, 'o', 00H, 'l', 00H, 's', 00H, '\'
	DB	00H, 'M', 00H, 'S', 00H, 'V', 00H, 'C', 00H, '\', 00H, '1', 00H
	DB	'4', 00H, '.', 00H, '3', 00H, '8', 00H, '.', 00H, '3', 00H, '3'
	DB	00H, '1', 00H, '3', 00H, '0', 00H, '\', 00H, 'i', 00H, 'n', 00H
	DB	'c', 00H, 'l', 00H, 'u', 00H, 'd', 00H, 'e', 00H, '\', 00H, 'x'
	DB	00H, 'm', 00H, 'e', 00H, 'm', 00H, 'o', 00H, 'r', 00H, 'y', 00H
	DB	00H, 00H
$SG65096 DB	00H, 00H
	ORG $+2
$SG65097 DB	'"', 00H, 'i', 00H, 'n', 00H, 'v', 00H, 'a', 00H, 'l', 00H
	DB	'i', 00H, 'd', 00H, ' ', 00H, 'a', 00H, 'r', 00H, 'g', 00H, 'u'
	DB	00H, 'm', 00H, 'e', 00H, 'n', 00H, 't', 00H, '"', 00H, 00H, 00H
CONST	ENDS
PUBLIC	?__empty_global_delete@@YAXPEAX@Z		; __empty_global_delete
PUBLIC	?__empty_global_delete@@YAXPEAX_K@Z		; __empty_global_delete
PUBLIC	?__empty_global_delete@@YAXPEAXW4align_val_t@std@@@Z ; __empty_global_delete
PUBLIC	?__empty_global_delete@@YAXPEAX_KW4align_val_t@std@@@Z ; __empty_global_delete
PUBLIC	??Mstd@@YA_NUpartial_ordering@0@U_Literal_zero@0@@Z ; std::operator<
PUBLIC	??Mstd@@YA_NUstrong_ordering@0@U_Literal_zero@0@@Z ; std::operator<
PUBLIC	??Ostd@@YA_NUstrong_ordering@0@U_Literal_zero@0@@Z ; std::operator>
PUBLIC	??Nstd@@YA_NUstrong_ordering@0@U_Literal_zero@0@@Z ; std::operator<=
PUBLIC	?length@?$_Narrow_char_traits@DH@std@@SA_KQEBD@Z ; std::_Narrow_char_traits<char,int>::length
PUBLIC	?eq_int_type@?$_Narrow_char_traits@DH@std@@SA_NHH@Z ; std::_Narrow_char_traits<char,int>::eq_int_type
PUBLIC	?eof@?$_Narrow_char_traits@DH@std@@SAHXZ	; std::_Narrow_char_traits<char,int>::eof
PUBLIC	?count@?$duration@_JU?$ratio@$00$0JIJGIA@@std@@@chrono@std@@QEBA_JXZ ; std::chrono::duration<__int64,std::ratio<1,10000000> >::count
PUBLIC	??$?0_J$0A@@?$duration@_JU?$ratio@$00$0JIJGIA@@std@@@chrono@std@@QEAA@AEB_J@Z ; std::chrono::duration<__int64,std::ratio<1,10000000> >::duration<__int64,std::ratio<1,10000000> ><__int64,0>
PUBLIC	?count@?$duration@_JU?$ratio@$00$00@std@@@chrono@std@@QEBA_JXZ ; std::chrono::duration<__int64,std::ratio<1,1> >::count
PUBLIC	??$?0_J$0A@@?$duration@_JU?$ratio@$00$00@std@@@chrono@std@@QEAA@AEB_J@Z ; std::chrono::duration<__int64,std::ratio<1,1> >::duration<__int64,std::ratio<1,1> ><__int64,0>
PUBLIC	?now@steady_clock@chrono@std@@SA?AV?$time_point@Usteady_clock@chrono@std@@V?$duration@_JU?$ratio@$00$0DLJKMKAA@@std@@@23@@23@XZ ; std::chrono::steady_clock::now
PUBLIC	?count@?$duration@_JU?$ratio@$00$0DLJKMKAA@@std@@@chrono@std@@QEBA_JXZ ; std::chrono::duration<__int64,std::ratio<1,1000000000> >::count
PUBLIC	??Y?$duration@_JU?$ratio@$00$0DLJKMKAA@@std@@@chrono@std@@QEAAAEAV012@AEBV012@@Z ; std::chrono::duration<__int64,std::ratio<1,1000000000> >::operator+=
PUBLIC	??Z?$duration@_JU?$ratio@$00$0DLJKMKAA@@std@@@chrono@std@@QEAAAEAV012@AEBV012@@Z ; std::chrono::duration<__int64,std::ratio<1,1000000000> >::operator-=
PUBLIC	??0?$time_point@Usteady_clock@chrono@std@@V?$duration@_JU?$ratio@$00$0DLJKMKAA@@std@@@23@@chrono@std@@QEAA@AEBV?$duration@_JU?$ratio@$00$0DLJKMKAA@@std@@@12@@Z ; std::chrono::time_point<std::chrono::steady_clock,std::chrono::duration<__int64,std::ratio<1,1000000000> > >::time_point<std::chrono::steady_clock,std::chrono::duration<__int64,std::ratio<1,1000000000> > >
PUBLIC	?time_since_epoch@?$time_point@Usteady_clock@chrono@std@@V?$duration@_JU?$ratio@$00$0DLJKMKAA@@std@@@23@@chrono@std@@QEBA?AV?$duration@_JU?$ratio@$00$0DLJKMKAA@@std@@@23@XZ ; std::chrono::time_point<std::chrono::steady_clock,std::chrono::duration<__int64,std::ratio<1,1000000000> > >::time_since_epoch
PUBLIC	??Y?$time_point@Usteady_clock@chrono@std@@V?$duration@_JU?$ratio@$00$0DLJKMKAA@@std@@@23@@chrono@std@@QEAAAEAV012@AEBV?$duration@_JU?$ratio@$00$0DLJKMKAA@@std@@@12@@Z ; std::chrono::time_point<std::chrono::steady_clock,std::chrono::duration<__int64,std::ratio<1,1000000000> > >::operator+=
PUBLIC	??$?0_J$0A@@?$duration@_JU?$ratio@$00$0DLJKMKAA@@std@@@chrono@std@@QEAA@AEB_J@Z ; std::chrono::duration<__int64,std::ratio<1,1000000000> >::duration<__int64,std::ratio<1,1000000000> ><__int64,0>
PUBLIC	?count@?$duration@NU?$ratio@$00$00@std@@@chrono@std@@QEBANXZ ; std::chrono::duration<double,std::ratio<1,1> >::count
PUBLIC	??$duration_cast@V?$duration@_JU?$ratio@$00$00@std@@@chrono@std@@_JU?$ratio@$00$0DLJKMKAA@@3@$0A@@chrono@std@@YA?AV?$duration@_JU?$ratio@$00$00@std@@@01@AEBV?$duration@_JU?$ratio@$00$0DLJKMKAA@@std@@@01@@Z ; std::chrono::duration_cast<std::chrono::duration<__int64,std::ratio<1,1> >,__int64,std::ratio<1,1000000000>,0>
PUBLIC	??$?0_JU?$ratio@$00$00@std@@$0A@@?$duration@_JU?$ratio@$00$0DLJKMKAA@@std@@@chrono@std@@QEAA@AEBV?$duration@_JU?$ratio@$00$00@std@@@12@@Z ; std::chrono::duration<__int64,std::ratio<1,1000000000> >::duration<__int64,std::ratio<1,1000000000> ><__int64,std::ratio<1,1>,0>
PUBLIC	?count@?$duration@_JU?$ratio@$00$0DOI@@std@@@chrono@std@@QEBA_JXZ ; std::chrono::duration<__int64,std::ratio<1,1000> >::count
PUBLIC	?count@?$duration@NU?$ratio@$00$0DLJKMKAA@@std@@@chrono@std@@QEBANXZ ; std::chrono::duration<double,std::ratio<1,1000000000> >::count
PUBLIC	main
PUBLIC	??$?6U?$char_traits@D@std@@@std@@YAAEAV?$basic_ostream@DU?$char_traits@D@std@@@0@AEAV10@PEBD@Z ; std::operator<<<std::char_traits<char> >
PUBLIC	??$endl@DU?$char_traits@D@std@@@std@@YAAEAV?$basic_ostream@DU?$char_traits@D@std@@@0@AEAV10@@Z ; std::endl<char,std::char_traits<char> >
PUBLIC	??$swap@PEAVCharacter@@$0A@@std@@YAXAEAPEAVCharacter@@0@Z ; std::swap<Character *,0>
PUBLIC	??$?0H$0A@@?$duration@_JU?$ratio@$00$0DOI@@std@@@chrono@std@@QEAA@AEBH@Z ; std::chrono::duration<__int64,std::ratio<1,1000> >::duration<__int64,std::ratio<1,1000> ><int,0>
PUBLIC	??$sleep_for@_JU?$ratio@$00$0DOI@@std@@@this_thread@std@@YAXAEBV?$duration@_JU?$ratio@$00$0DOI@@std@@@chrono@1@@Z ; std::this_thread::sleep_for<__int64,std::ratio<1,1000> >
PUBLIC	??0_Sentry_base@?$basic_ostream@DU?$char_traits@D@std@@@std@@QEAA@AEAV12@@Z ; std::basic_ostream<char,std::char_traits<char> >::_Sentry_base::_Sentry_base
PUBLIC	??1_Sentry_base@?$basic_ostream@DU?$char_traits@D@std@@@std@@QEAA@XZ ; std::basic_ostream<char,std::char_traits<char> >::_Sentry_base::~_Sentry_base
PUBLIC	??0sentry@?$basic_ostream@DU?$char_traits@D@std@@@std@@QEAA@AEAV12@@Z ; std::basic_ostream<char,std::char_traits<char> >::sentry::sentry
PUBLIC	??1sentry@?$basic_ostream@DU?$char_traits@D@std@@@std@@QEAA@XZ ; std::basic_ostream<char,std::char_traits<char> >::sentry::~sentry
PUBLIC	??Bsentry@?$basic_ostream@DU?$char_traits@D@std@@@std@@QEBA_NXZ ; std::basic_ostream<char,std::char_traits<char> >::sentry::operator bool
PUBLIC	??$_To_absolute_time@_JU?$ratio@$00$0DOI@@std@@@std@@YA?A_PAEBV?$duration@_JU?$ratio@$00$0DOI@@std@@@chrono@0@@Z ; std::_To_absolute_time<__int64,std::ratio<1,1000> >
PUBLIC	??$?__M_JU?$ratio@$00$0DOI@@std@@_JU01@@chrono@std@@YA?A_PAEBV?$duration@_JU?$ratio@$00$0DOI@@std@@@01@0@Z ; std::chrono::operator<=><__int64,std::ratio<1,1000>,__int64,std::ratio<1,1000> >
PUBLIC	??$?GUsteady_clock@chrono@std@@V?$duration@_JU?$ratio@$00$0DLJKMKAA@@std@@@12@_JU?$ratio@$00$0DOI@@2@@chrono@std@@YA?AV?$time_point@Usteady_clock@chrono@std@@V?$duration@_JU?$ratio@$00$0DLJKMKAA@@std@@@23@@01@AEBV201@AEBV?$duration@_JU?$ratio@$00$0DOI@@std@@@01@@Z ; std::chrono::operator-<std::chrono::steady_clock,std::chrono::duration<__int64,std::ratio<1,1000000000> >,__int64,std::ratio<1,1000> >
PUBLIC	??$?__M_JU?$ratio@$00$0DLJKMKAA@@std@@_JU01@@chrono@std@@YA?A_PAEBV?$duration@_JU?$ratio@$00$0DLJKMKAA@@std@@@01@0@Z ; std::chrono::operator<=><__int64,std::ratio<1,1000000000>,__int64,std::ratio<1,1000000000> >
PUBLIC	??$?__MUsteady_clock@chrono@std@@V?$duration@_JU?$ratio@$00$0DLJKMKAA@@std@@@12@V312@@chrono@std@@YA?A_PAEBV?$time_point@Usteady_clock@chrono@std@@V?$duration@_JU?$ratio@$00$0DLJKMKAA@@std@@@23@@01@0@Z ; std::chrono::operator<=><std::chrono::steady_clock,std::chrono::duration<__int64,std::ratio<1,1000000000> >,std::chrono::duration<__int64,std::ratio<1,1000000000> > >
PUBLIC	??$?0_JU?$ratio@$00$0DOI@@std@@$0A@@?$duration@_JU?$ratio@$00$0DLJKMKAA@@std@@@chrono@std@@QEAA@AEBV?$duration@_JU?$ratio@$00$0DOI@@std@@@12@@Z ; std::chrono::duration<__int64,std::ratio<1,1000000000> >::duration<__int64,std::ratio<1,1000000000> ><__int64,std::ratio<1,1000>,0>
PUBLIC	??$sleep_until@Usteady_clock@chrono@std@@V?$duration@_JU?$ratio@$00$0DLJKMKAA@@std@@@23@@this_thread@std@@YAXAEBV?$time_point@Usteady_clock@chrono@std@@V?$duration@_JU?$ratio@$00$0DLJKMKAA@@std@@@23@@chrono@1@@Z ; std::this_thread::sleep_until<std::chrono::steady_clock,std::chrono::duration<__int64,std::ratio<1,1000000000> > >
PUBLIC	??$?G_JU?$ratio@$00$0DLJKMKAA@@std@@_JU?$ratio@$00$0DOI@@1@@chrono@std@@YA?AV?$duration@_JU?$ratio@$00$0DLJKMKAA@@std@@@01@AEBV201@AEBV?$duration@_JU?$ratio@$00$0DOI@@std@@@01@@Z ; std::chrono::operator-<__int64,std::ratio<1,1000000000>,__int64,std::ratio<1,1000> >
PUBLIC	??$duration_cast@V?$duration@_JU?$ratio@$00$0DLJKMKAA@@std@@@chrono@std@@_JU?$ratio@$00$0DOI@@3@$0A@@chrono@std@@YA?AV?$duration@_JU?$ratio@$00$0DLJKMKAA@@std@@@01@AEBV?$duration@_JU?$ratio@$00$0DOI@@std@@@01@@Z ; std::chrono::duration_cast<std::chrono::duration<__int64,std::ratio<1,1000000000> >,__int64,std::ratio<1,1000>,0>
PUBLIC	??$?GUsteady_clock@chrono@std@@V?$duration@_JU?$ratio@$00$0DLJKMKAA@@std@@@12@V312@@chrono@std@@YA?AV?$duration@_JU?$ratio@$00$0DLJKMKAA@@std@@@01@AEBV?$time_point@Usteady_clock@chrono@std@@V?$duration@_JU?$ratio@$00$0DLJKMKAA@@std@@@23@@01@0@Z ; std::chrono::operator-<std::chrono::steady_clock,std::chrono::duration<__int64,std::ratio<1,1000000000> >,std::chrono::duration<__int64,std::ratio<1,1000000000> > >
PUBLIC	??$_To_timespec64_sys_10_day_clamped@_JU?$ratio@$00$0DLJKMKAA@@std@@@std@@YA_NAEAU_timespec64@@AEBV?$duration@_JU?$ratio@$00$0DLJKMKAA@@std@@@chrono@0@@Z ; std::_To_timespec64_sys_10_day_clamped<__int64,std::ratio<1,1000000000> >
PUBLIC	??$?G_JU?$ratio@$00$0DLJKMKAA@@std@@_JU01@@chrono@std@@YA?AV?$duration@_JU?$ratio@$00$0DLJKMKAA@@std@@@01@AEBV201@0@Z ; std::chrono::operator-<__int64,std::ratio<1,1000000000>,__int64,std::ratio<1,1000000000> >
PUBLIC	??$?0_JU?$ratio@$00$0JIJGIA@@std@@$0A@@?$duration@_JU?$ratio@$00$0DLJKMKAA@@std@@@chrono@std@@QEAA@AEBV?$duration@_JU?$ratio@$00$0JIJGIA@@std@@@12@@Z ; std::chrono::duration<__int64,std::ratio<1,1000000000> >::duration<__int64,std::ratio<1,1000000000> ><__int64,std::ratio<1,10000000>,0>
PUBLIC	??$?__MNU?$ratio@$00$00@std@@_JU?$ratio@$00$0DLJKMKAA@@1@@chrono@std@@YA?A_PAEBV?$duration@NU?$ratio@$00$00@std@@@01@AEBV?$duration@_JU?$ratio@$00$0DLJKMKAA@@std@@@01@@Z ; std::chrono::operator<=><double,std::ratio<1,1>,__int64,std::ratio<1,1000000000> >
PUBLIC	??$?0NU?$ratio@$00$00@std@@$0A@@?$duration@NU?$ratio@$00$0DLJKMKAA@@std@@@chrono@std@@QEAA@AEBV?$duration@NU?$ratio@$00$00@std@@@12@@Z ; std::chrono::duration<double,std::ratio<1,1000000000> >::duration<double,std::ratio<1,1000000000> ><double,std::ratio<1,1>,0>
PUBLIC	??$?0_JU?$ratio@$00$0DLJKMKAA@@std@@$0A@@?$duration@NU?$ratio@$00$0DLJKMKAA@@std@@@chrono@std@@QEAA@AEBV?$duration@_JU?$ratio@$00$0DLJKMKAA@@std@@@12@@Z ; std::chrono::duration<double,std::ratio<1,1000000000> >::duration<double,std::ratio<1,1000000000> ><__int64,std::ratio<1,1000000000>,0>
PUBLIC	??$duration_cast@V?$duration@_JU?$ratio@$00$0DLJKMKAA@@std@@@chrono@std@@_JU?$ratio@$00$0DLJKMKAA@@3@$0A@@chrono@std@@YA?AV?$duration@_JU?$ratio@$00$0DLJKMKAA@@std@@@01@AEBV201@@Z ; std::chrono::duration_cast<std::chrono::duration<__int64,std::ratio<1,1000000000> >,__int64,std::ratio<1,1000000000>,0>
PUBLIC	??$duration_cast@V?$duration@_JU?$ratio@$00$0DLJKMKAA@@std@@@chrono@std@@_JU?$ratio@$00$00@3@$0A@@chrono@std@@YA?AV?$duration@_JU?$ratio@$00$0DLJKMKAA@@std@@@01@AEBV?$duration@_JU?$ratio@$00$00@std@@@01@@Z ; std::chrono::duration_cast<std::chrono::duration<__int64,std::ratio<1,1000000000> >,__int64,std::ratio<1,1>,0>
PUBLIC	??$duration_cast@V?$duration@_JU?$ratio@$00$0DLJKMKAA@@std@@@chrono@std@@_JU?$ratio@$00$0JIJGIA@@3@$0A@@chrono@std@@YA?AV?$duration@_JU?$ratio@$00$0DLJKMKAA@@std@@@01@AEBV?$duration@_JU?$ratio@$00$0JIJGIA@@std@@@01@@Z ; std::chrono::duration_cast<std::chrono::duration<__int64,std::ratio<1,1000000000> >,__int64,std::ratio<1,10000000>,0>
PUBLIC	??$duration_cast@V?$duration@NU?$ratio@$00$0DLJKMKAA@@std@@@chrono@std@@NU?$ratio@$00$00@3@$0A@@chrono@std@@YA?AV?$duration@NU?$ratio@$00$0DLJKMKAA@@std@@@01@AEBV?$duration@NU?$ratio@$00$00@std@@@01@@Z ; std::chrono::duration_cast<std::chrono::duration<double,std::ratio<1,1000000000> >,double,std::ratio<1,1>,0>
PUBLIC	??$duration_cast@V?$duration@NU?$ratio@$00$0DLJKMKAA@@std@@@chrono@std@@_JU?$ratio@$00$0DLJKMKAA@@3@$0A@@chrono@std@@YA?AV?$duration@NU?$ratio@$00$0DLJKMKAA@@std@@@01@AEBV?$duration@_JU?$ratio@$00$0DLJKMKAA@@std@@@01@@Z ; std::chrono::duration_cast<std::chrono::duration<double,std::ratio<1,1000000000> >,__int64,std::ratio<1,1000000000>,0>
PUBLIC	??$?0N$0A@@?$duration@NU?$ratio@$00$0DLJKMKAA@@std@@@chrono@std@@QEAA@AEBN@Z ; std::chrono::duration<double,std::ratio<1,1000000000> >::duration<double,std::ratio<1,1000000000> ><double,0>
PUBLIC	?less@partial_ordering@std@@2U12@B		; std::partial_ordering::less
PUBLIC	?equivalent@partial_ordering@std@@2U12@B	; std::partial_ordering::equivalent
PUBLIC	?greater@partial_ordering@std@@2U12@B		; std::partial_ordering::greater
PUBLIC	?unordered@partial_ordering@std@@2U12@B		; std::partial_ordering::unordered
PUBLIC	?less@strong_ordering@std@@2U12@B		; std::strong_ordering::less
PUBLIC	?equal@strong_ordering@std@@2U12@B		; std::strong_ordering::equal
PUBLIC	?greater@strong_ordering@std@@2U12@B		; std::strong_ordering::greater
PUBLIC	__real@412a5e0000000000
PUBLIC	__real@41cdcd6500000000
EXTRN	__imp_??0Character@@QEAA@PEBD@Z:PROC
EXTRN	__imp_??1Character@@QEAA@XZ:PROC
EXTRN	__imp_?name@Character@@QEBAPEBDXZ:PROC
EXTRN	__imp_?dead@Character@@QEBA_NXZ:PROC
EXTRN	__imp_?attack@Character@@QEAA_NAEAV1@@Z:PROC
EXTRN	?uncaught_exceptions@std@@YAHXZ:PROC		; std::uncaught_exceptions
EXTRN	_Xtime_get_ticks:PROC
EXTRN	_Query_perf_counter:PROC
EXTRN	_Query_perf_frequency:PROC
EXTRN	_Thrd_sleep:PROC
EXTRN	__imp_?good@ios_base@std@@QEBA_NXZ:PROC
EXTRN	__imp_?flags@ios_base@std@@QEBAHXZ:PROC
EXTRN	__imp_?width@ios_base@std@@QEBA_JXZ:PROC
EXTRN	__imp_?width@ios_base@std@@QEAA_J_J@Z:PROC
EXTRN	__imp_?sputc@?$basic_streambuf@DU?$char_traits@D@std@@@std@@QEAAHD@Z:PROC
EXTRN	__imp_?sputn@?$basic_streambuf@DU?$char_traits@D@std@@@std@@QEAA_JPEBD_J@Z:PROC
EXTRN	__imp_?setstate@?$basic_ios@DU?$char_traits@D@std@@@std@@QEAAXH_N@Z:PROC
EXTRN	__imp_?tie@?$basic_ios@DU?$char_traits@D@std@@@std@@QEBAPEAV?$basic_ostream@DU?$char_traits@D@std@@@2@XZ:PROC
EXTRN	__imp_?rdbuf@?$basic_ios@DU?$char_traits@D@std@@@std@@QEBAPEAV?$basic_streambuf@DU?$char_traits@D@std@@@2@XZ:PROC
EXTRN	__imp_?fill@?$basic_ios@DU?$char_traits@D@std@@@std@@QEBADXZ:PROC
EXTRN	__imp_?widen@?$basic_ios@DU?$char_traits@D@std@@@std@@QEBADD@Z:PROC
EXTRN	__imp_?_Osfx@?$basic_ostream@DU?$char_traits@D@std@@@std@@QEAAXXZ:PROC
EXTRN	__imp_??6?$basic_ostream@DU?$char_traits@D@std@@@std@@QEAAAEAV01@P6AAEAV01@AEAV01@@Z@Z:PROC
EXTRN	__imp_??6?$basic_ostream@DU?$char_traits@D@std@@@std@@QEAAAEAV01@H@Z:PROC
EXTRN	__imp_?put@?$basic_ostream@DU?$char_traits@D@std@@@std@@QEAAAEAV12@D@Z:PROC
EXTRN	__imp_?flush@?$basic_ostream@DU?$char_traits@D@std@@@std@@QEAAAEAV12@XZ:PROC
EXTRN	__imp_?get@?$basic_istream@DU?$char_traits@D@std@@@std@@QEAAHXZ:PROC
EXTRN	_RTC_CheckStackVars:PROC
EXTRN	_RTC_InitBase:PROC
EXTRN	_RTC_Shutdown:PROC
EXTRN	__CxxFrameHandler4:PROC
EXTRN	__GSHandlerCheck:PROC
EXTRN	__security_check_cookie:PROC
EXTRN	__imp_?cin@std@@3V?$basic_istream@DU?$char_traits@D@std@@@1@A:BYTE
EXTRN	__imp_?cout@std@@3V?$basic_ostream@DU?$char_traits@D@std@@@1@A:BYTE
EXTRN	__security_cookie:QWORD
EXTRN	_fltused:DWORD
;	COMDAT pdata
pdata	SEGMENT
$pdata$?__empty_global_delete@@YAXPEAX@Z DD imagerel $LN3
	DD	imagerel $LN3+8
	DD	imagerel $unwind$?__empty_global_delete@@YAXPEAX@Z
pdata	ENDS
;	COMDAT pdata
pdata	SEGMENT
$pdata$?__empty_global_delete@@YAXPEAX_K@Z DD imagerel $LN3
	DD	imagerel $LN3+13
	DD	imagerel $unwind$?__empty_global_delete@@YAXPEAX_K@Z
pdata	ENDS
;	COMDAT pdata
pdata	SEGMENT
$pdata$?__empty_global_delete@@YAXPEAXW4align_val_t@std@@@Z DD imagerel $LN3
	DD	imagerel $LN3+13
	DD	imagerel $unwind$?__empty_global_delete@@YAXPEAXW4align_val_t@std@@@Z
pdata	ENDS
;	COMDAT pdata
pdata	SEGMENT
$pdata$?__empty_global_delete@@YAXPEAX_KW4align_val_t@std@@@Z DD imagerel $LN3
	DD	imagerel $LN3+18
	DD	imagerel $unwind$?__empty_global_delete@@YAXPEAX_KW4align_val_t@std@@@Z
pdata	ENDS
;	COMDAT pdata
pdata	SEGMENT
$pdata$??Mstd@@YA_NUpartial_ordering@0@U_Literal_zero@0@@Z DD imagerel $LN5
	DD	imagerel $LN5+49
	DD	imagerel $unwind$??Mstd@@YA_NUpartial_ordering@0@U_Literal_zero@0@@Z
pdata	ENDS
;	COMDAT pdata
pdata	SEGMENT
$pdata$??Mstd@@YA_NUstrong_ordering@0@U_Literal_zero@0@@Z DD imagerel $LN5
	DD	imagerel $LN5+48
	DD	imagerel $unwind$??Mstd@@YA_NUstrong_ordering@0@U_Literal_zero@0@@Z
pdata	ENDS
;	COMDAT pdata
pdata	SEGMENT
$pdata$??Ostd@@YA_NUstrong_ordering@0@U_Literal_zero@0@@Z DD imagerel $LN5
	DD	imagerel $LN5+48
	DD	imagerel $unwind$??Ostd@@YA_NUstrong_ordering@0@U_Literal_zero@0@@Z
pdata	ENDS
;	COMDAT pdata
pdata	SEGMENT
$pdata$??Nstd@@YA_NUstrong_ordering@0@U_Literal_zero@0@@Z DD imagerel $LN5
	DD	imagerel $LN5+48
	DD	imagerel $unwind$??Nstd@@YA_NUstrong_ordering@0@U_Literal_zero@0@@Z
pdata	ENDS
;	COMDAT pdata
pdata	SEGMENT
$pdata$?length@?$_Narrow_char_traits@DH@std@@SA_KQEBD@Z DD imagerel $LN4
	DD	imagerel $LN4+59
	DD	imagerel $unwind$?length@?$_Narrow_char_traits@DH@std@@SA_KQEBD@Z
pdata	ENDS
;	COMDAT pdata
pdata	SEGMENT
$pdata$?eq_int_type@?$_Narrow_char_traits@DH@std@@SA_NHH@Z DD imagerel $LN5
	DD	imagerel $LN5+49
	DD	imagerel $unwind$?eq_int_type@?$_Narrow_char_traits@DH@std@@SA_NHH@Z
pdata	ENDS
;	COMDAT pdata
pdata	SEGMENT
$pdata$?eof@?$_Narrow_char_traits@DH@std@@SAHXZ DD imagerel $LN3
	DD	imagerel $LN3+9
	DD	imagerel $unwind$?eof@?$_Narrow_char_traits@DH@std@@SAHXZ
pdata	ENDS
;	COMDAT pdata
pdata	SEGMENT
$pdata$?count@?$duration@_JU?$ratio@$00$0JIJGIA@@std@@@chrono@std@@QEBA_JXZ DD imagerel $LN3
	DD	imagerel $LN3+16
	DD	imagerel $unwind$?count@?$duration@_JU?$ratio@$00$0JIJGIA@@std@@@chrono@std@@QEBA_JXZ
pdata	ENDS
;	COMDAT pdata
pdata	SEGMENT
$pdata$??$?0_J$0A@@?$duration@_JU?$ratio@$00$0JIJGIA@@std@@@chrono@std@@QEAA@AEB_J@Z DD imagerel $LN3
	DD	imagerel $LN3+34
	DD	imagerel $unwind$??$?0_J$0A@@?$duration@_JU?$ratio@$00$0JIJGIA@@std@@@chrono@std@@QEAA@AEB_J@Z
pdata	ENDS
;	COMDAT pdata
pdata	SEGMENT
$pdata$?count@?$duration@_JU?$ratio@$00$00@std@@@chrono@std@@QEBA_JXZ DD imagerel $LN3
	DD	imagerel $LN3+16
	DD	imagerel $unwind$?count@?$duration@_JU?$ratio@$00$00@std@@@chrono@std@@QEBA_JXZ
pdata	ENDS
;	COMDAT pdata
pdata	SEGMENT
$pdata$??$?0_J$0A@@?$duration@_JU?$ratio@$00$00@std@@@chrono@std@@QEAA@AEB_J@Z DD imagerel $LN3
	DD	imagerel $LN3+34
	DD	imagerel $unwind$??$?0_J$0A@@?$duration@_JU?$ratio@$00$00@std@@@chrono@std@@QEAA@AEB_J@Z
pdata	ENDS
;	COMDAT pdata
pdata	SEGMENT
$pdata$?now@steady_clock@chrono@std@@SA?AV?$time_point@Usteady_clock@chrono@std@@V?$duration@_JU?$ratio@$00$0DLJKMKAA@@std@@@23@@23@XZ DD imagerel $LN7
	DD	imagerel $LN7+422
	DD	imagerel $unwind$?now@steady_clock@chrono@std@@SA?AV?$time_point@Usteady_clock@chrono@std@@V?$duration@_JU?$ratio@$00$0DLJKMKAA@@std@@@23@@23@XZ
pdata	ENDS
;	COMDAT pdata
pdata	SEGMENT
$pdata$?count@?$duration@_JU?$ratio@$00$0DLJKMKAA@@std@@@chrono@std@@QEBA_JXZ DD imagerel $LN3
	DD	imagerel $LN3+16
	DD	imagerel $unwind$?count@?$duration@_JU?$ratio@$00$0DLJKMKAA@@std@@@chrono@std@@QEBA_JXZ
pdata	ENDS
;	COMDAT pdata
pdata	SEGMENT
$pdata$??Y?$duration@_JU?$ratio@$00$0DLJKMKAA@@std@@@chrono@std@@QEAAAEAV012@AEBV012@@Z DD imagerel $LN3
	DD	imagerel $LN3+42
	DD	imagerel $unwind$??Y?$duration@_JU?$ratio@$00$0DLJKMKAA@@std@@@chrono@std@@QEAAAEAV012@AEBV012@@Z
pdata	ENDS
;	COMDAT pdata
pdata	SEGMENT
$pdata$??Z?$duration@_JU?$ratio@$00$0DLJKMKAA@@std@@@chrono@std@@QEAAAEAV012@AEBV012@@Z DD imagerel $LN3
	DD	imagerel $LN3+45
	DD	imagerel $unwind$??Z?$duration@_JU?$ratio@$00$0DLJKMKAA@@std@@@chrono@std@@QEAAAEAV012@AEBV012@@Z
pdata	ENDS
;	COMDAT pdata
pdata	SEGMENT
$pdata$??0?$time_point@Usteady_clock@chrono@std@@V?$duration@_JU?$ratio@$00$0DLJKMKAA@@std@@@23@@chrono@std@@QEAA@AEBV?$duration@_JU?$ratio@$00$0DLJKMKAA@@std@@@12@@Z DD imagerel $LN3
	DD	imagerel $LN3+34
	DD	imagerel $unwind$??0?$time_point@Usteady_clock@chrono@std@@V?$duration@_JU?$ratio@$00$0DLJKMKAA@@std@@@23@@chrono@std@@QEAA@AEBV?$duration@_JU?$ratio@$00$0DLJKMKAA@@std@@@12@@Z
pdata	ENDS
;	COMDAT pdata
pdata	SEGMENT
$pdata$?time_since_epoch@?$time_point@Usteady_clock@chrono@std@@V?$duration@_JU?$ratio@$00$0DLJKMKAA@@std@@@23@@chrono@std@@QEBA?AV?$duration@_JU?$ratio@$00$0DLJKMKAA@@std@@@23@XZ DD imagerel $LN3
	DD	imagerel $LN3+34
	DD	imagerel $unwind$?time_since_epoch@?$time_point@Usteady_clock@chrono@std@@V?$duration@_JU?$ratio@$00$0DLJKMKAA@@std@@@23@@chrono@std@@QEBA?AV?$duration@_JU?$ratio@$00$0DLJKMKAA@@std@@@23@XZ
pdata	ENDS
;	COMDAT pdata
pdata	SEGMENT
$pdata$??Y?$time_point@Usteady_clock@chrono@std@@V?$duration@_JU?$ratio@$00$0DLJKMKAA@@std@@@23@@chrono@std@@QEAAAEAV012@AEBV?$duration@_JU?$ratio@$00$0DLJKMKAA@@std@@@12@@Z DD imagerel $LN3
	DD	imagerel $LN3+44
	DD	imagerel $unwind$??Y?$time_point@Usteady_clock@chrono@std@@V?$duration@_JU?$ratio@$00$0DLJKMKAA@@std@@@23@@chrono@std@@QEAAAEAV012@AEBV?$duration@_JU?$ratio@$00$0DLJKMKAA@@std@@@12@@Z
pdata	ENDS
;	COMDAT pdata
pdata	SEGMENT
$pdata$??$?0_J$0A@@?$duration@_JU?$ratio@$00$0DLJKMKAA@@std@@@chrono@std@@QEAA@AEB_J@Z DD imagerel $LN3
	DD	imagerel $LN3+34
	DD	imagerel $unwind$??$?0_J$0A@@?$duration@_JU?$ratio@$00$0DLJKMKAA@@std@@@chrono@std@@QEAA@AEB_J@Z
pdata	ENDS
;	COMDAT pdata
pdata	SEGMENT
$pdata$?count@?$duration@NU?$ratio@$00$00@std@@@chrono@std@@QEBANXZ DD imagerel $LN3
	DD	imagerel $LN3+25
	DD	imagerel $unwind$?count@?$duration@NU?$ratio@$00$00@std@@@chrono@std@@QEBANXZ
pdata	ENDS
;	COMDAT pdata
pdata	SEGMENT
$pdata$??$duration_cast@V?$duration@_JU?$ratio@$00$00@std@@@chrono@std@@_JU?$ratio@$00$0DLJKMKAA@@3@$0A@@chrono@std@@YA?AV?$duration@_JU?$ratio@$00$00@std@@@01@AEBV?$duration@_JU?$ratio@$00$0DLJKMKAA@@std@@@01@@Z DD imagerel $LN3
	DD	imagerel $LN3+76
	DD	imagerel $unwind$??$duration_cast@V?$duration@_JU?$ratio@$00$00@std@@@chrono@std@@_JU?$ratio@$00$0DLJKMKAA@@3@$0A@@chrono@std@@YA?AV?$duration@_JU?$ratio@$00$00@std@@@01@AEBV?$duration@_JU?$ratio@$00$0DLJKMKAA@@std@@@01@@Z
pdata	ENDS
;	COMDAT pdata
pdata	SEGMENT
$pdata$??$?0_JU?$ratio@$00$00@std@@$0A@@?$duration@_JU?$ratio@$00$0DLJKMKAA@@std@@@chrono@std@@QEAA@AEBV?$duration@_JU?$ratio@$00$00@std@@@12@@Z DD imagerel $LN3
	DD	imagerel $LN3+57
	DD	imagerel $unwind$??$?0_JU?$ratio@$00$00@std@@$0A@@?$duration@_JU?$ratio@$00$0DLJKMKAA@@std@@@chrono@std@@QEAA@AEBV?$duration@_JU?$ratio@$00$00@std@@@12@@Z
pdata	ENDS
;	COMDAT pdata
pdata	SEGMENT
$pdata$?count@?$duration@_JU?$ratio@$00$0DOI@@std@@@chrono@std@@QEBA_JXZ DD imagerel $LN3
	DD	imagerel $LN3+16
	DD	imagerel $unwind$?count@?$duration@_JU?$ratio@$00$0DOI@@std@@@chrono@std@@QEBA_JXZ
pdata	ENDS
;	COMDAT pdata
pdata	SEGMENT
$pdata$?count@?$duration@NU?$ratio@$00$0DLJKMKAA@@std@@@chrono@std@@QEBANXZ DD imagerel $LN3
	DD	imagerel $LN3+25
	DD	imagerel $unwind$?count@?$duration@NU?$ratio@$00$0DLJKMKAA@@std@@@chrono@std@@QEBANXZ
pdata	ENDS
pdata	SEGMENT
$pdata$main DD	imagerel $LN9
	DD	imagerel $LN9+910
	DD	imagerel $unwind$main
pdata	ENDS
pdata	SEGMENT
$pdata$main$dtor$0 DD imagerel main$dtor$0
	DD	imagerel main$dtor$0+36
	DD	imagerel $unwind$main$dtor$0
$pdata$main$dtor$1 DD imagerel main$dtor$1
	DD	imagerel main$dtor$1+36
	DD	imagerel $unwind$main$dtor$1
pdata	ENDS
;	COMDAT pdata
pdata	SEGMENT
$pdata$??$?6U?$char_traits@D@std@@@std@@YAAEAV?$basic_ostream@DU?$char_traits@D@std@@@0@AEAV10@PEBD@Z DD imagerel $LN25
	DD	imagerel $LN25+1055
	DD	imagerel $unwind$??$?6U?$char_traits@D@std@@@std@@YAAEAV?$basic_ostream@DU?$char_traits@D@std@@@0@AEAV10@PEBD@Z
pdata	ENDS
;	COMDAT pdata
pdata	SEGMENT
$pdata$?dtor$0@?0???$?6U?$char_traits@D@std@@@std@@YAAEAV?$basic_ostream@DU?$char_traits@D@std@@@0@AEAV10@PEBD@Z@4HA DD imagerel ?dtor$0@?0???$?6U?$char_traits@D@std@@@std@@YAAEAV?$basic_ostream@DU?$char_traits@D@std@@@0@AEAV10@PEBD@Z@4HA
	DD	imagerel ?dtor$0@?0???$?6U?$char_traits@D@std@@@std@@YAAEAV?$basic_ostream@DU?$char_traits@D@std@@@0@AEAV10@PEBD@Z@4HA+35
	DD	imagerel $unwind$?dtor$0@?0???$?6U?$char_traits@D@std@@@std@@YAAEAV?$basic_ostream@DU?$char_traits@D@std@@@0@AEAV10@PEBD@Z@4HA
pdata	ENDS
;	COMDAT pdata
pdata	SEGMENT
$pdata$?catch$1@?0???$?6U?$char_traits@D@std@@@std@@YAAEAV?$basic_ostream@DU?$char_traits@D@std@@@0@AEAV10@PEBD@Z@4HA DD imagerel ?catch$1@?0???$?6U?$char_traits@D@std@@@std@@YAAEAV?$basic_ostream@DU?$char_traits@D@std@@@0@AEAV10@PEBD@Z@4HA
	DD	imagerel ?catch$1@?0???$?6U?$char_traits@D@std@@@std@@YAAEAV?$basic_ostream@DU?$char_traits@D@std@@@0@AEAV10@PEBD@Z@4HA+90
	DD	imagerel $unwind$?catch$1@?0???$?6U?$char_traits@D@std@@@std@@YAAEAV?$basic_ostream@DU?$char_traits@D@std@@@0@AEAV10@PEBD@Z@4HA
pdata	ENDS
;	COMDAT pdata
pdata	SEGMENT
$pdata$??$endl@DU?$char_traits@D@std@@@std@@YAAEAV?$basic_ostream@DU?$char_traits@D@std@@@0@AEAV10@@Z DD imagerel $LN3
	DD	imagerel $LN3+87
	DD	imagerel $unwind$??$endl@DU?$char_traits@D@std@@@std@@YAAEAV?$basic_ostream@DU?$char_traits@D@std@@@0@AEAV10@@Z
pdata	ENDS
;	COMDAT pdata
pdata	SEGMENT
$pdata$??$swap@PEAVCharacter@@$0A@@std@@YAXAEAPEAVCharacter@@0@Z DD imagerel $LN3
	DD	imagerel $LN3+61
	DD	imagerel $unwind$??$swap@PEAVCharacter@@$0A@@std@@YAXAEAPEAVCharacter@@0@Z
pdata	ENDS
;	COMDAT pdata
pdata	SEGMENT
$pdata$??$?0H$0A@@?$duration@_JU?$ratio@$00$0DOI@@std@@@chrono@std@@QEAA@AEBH@Z DD imagerel $LN3
	DD	imagerel $LN3+34
	DD	imagerel $unwind$??$?0H$0A@@?$duration@_JU?$ratio@$00$0DOI@@std@@@chrono@std@@QEAA@AEBH@Z
pdata	ENDS
;	COMDAT pdata
pdata	SEGMENT
$pdata$??$sleep_for@_JU?$ratio@$00$0DOI@@std@@@this_thread@std@@YAXAEBV?$duration@_JU?$ratio@$00$0DOI@@std@@@chrono@1@@Z DD imagerel $LN3
	DD	imagerel $LN3+39
	DD	imagerel $unwind$??$sleep_for@_JU?$ratio@$00$0DOI@@std@@@this_thread@std@@YAXAEBV?$duration@_JU?$ratio@$00$0DOI@@std@@@chrono@1@@Z
pdata	ENDS
;	COMDAT pdata
pdata	SEGMENT
$pdata$??0_Sentry_base@?$basic_ostream@DU?$char_traits@D@std@@@std@@QEAA@AEAV12@@Z DD imagerel $LN4
	DD	imagerel $LN4+113
	DD	imagerel $unwind$??0_Sentry_base@?$basic_ostream@DU?$char_traits@D@std@@@std@@QEAA@AEAV12@@Z
pdata	ENDS
;	COMDAT pdata
pdata	SEGMENT
$pdata$??1_Sentry_base@?$basic_ostream@DU?$char_traits@D@std@@@std@@QEAA@XZ DD imagerel $LN4
	DD	imagerel $LN4+91
	DD	imagerel $unwind$??1_Sentry_base@?$basic_ostream@DU?$char_traits@D@std@@@std@@QEAA@XZ
pdata	ENDS
;	COMDAT pdata
pdata	SEGMENT
$pdata$??0sentry@?$basic_ostream@DU?$char_traits@D@std@@@std@@QEAA@AEAV12@@Z DD imagerel $LN7
	DD	imagerel $LN7+211
	DD	imagerel $unwind$??0sentry@?$basic_ostream@DU?$char_traits@D@std@@@std@@QEAA@AEAV12@@Z
pdata	ENDS
;	COMDAT pdata
pdata	SEGMENT
$pdata$?dtor$0@?0???0sentry@?$basic_ostream@DU?$char_traits@D@std@@@std@@QEAA@AEAV12@@Z@4HA DD imagerel ?dtor$0@?0???0sentry@?$basic_ostream@DU?$char_traits@D@std@@@std@@QEAA@AEAV12@@Z@4HA
	DD	imagerel ?dtor$0@?0???0sentry@?$basic_ostream@DU?$char_traits@D@std@@@std@@QEAA@AEAV12@@Z@4HA+35
	DD	imagerel $unwind$?dtor$0@?0???0sentry@?$basic_ostream@DU?$char_traits@D@std@@@std@@QEAA@AEAV12@@Z@4HA
pdata	ENDS
;	COMDAT pdata
pdata	SEGMENT
$pdata$??1sentry@?$basic_ostream@DU?$char_traits@D@std@@@std@@QEAA@XZ DD imagerel $LN6
	DD	imagerel $LN6+79
	DD	imagerel $unwind$??1sentry@?$basic_ostream@DU?$char_traits@D@std@@@std@@QEAA@XZ
pdata	ENDS
;	COMDAT pdata
pdata	SEGMENT
$pdata$??Bsentry@?$basic_ostream@DU?$char_traits@D@std@@@std@@QEBA_NXZ DD imagerel $LN3
	DD	imagerel $LN3+17
	DD	imagerel $unwind$??Bsentry@?$basic_ostream@DU?$char_traits@D@std@@@std@@QEBA_NXZ
pdata	ENDS
;	COMDAT pdata
pdata	SEGMENT
$pdata$??$_To_absolute_time@_JU?$ratio@$00$0DOI@@std@@@std@@YA?A_PAEBV?$duration@_JU?$ratio@$00$0DOI@@std@@@chrono@0@@Z DD imagerel $LN6
	DD	imagerel $LN6+464
	DD	imagerel $unwind$??$_To_absolute_time@_JU?$ratio@$00$0DOI@@std@@@std@@YA?A_PAEBV?$duration@_JU?$ratio@$00$0DOI@@std@@@chrono@0@@Z
pdata	ENDS
;	COMDAT pdata
pdata	SEGMENT
$pdata$??$?__M_JU?$ratio@$00$0DOI@@std@@_JU01@@chrono@std@@YA?A_PAEBV?$duration@_JU?$ratio@$00$0DOI@@std@@@01@0@Z DD imagerel $LN7
	DD	imagerel $LN7+203
	DD	imagerel $unwind$??$?__M_JU?$ratio@$00$0DOI@@std@@_JU01@@chrono@std@@YA?A_PAEBV?$duration@_JU?$ratio@$00$0DOI@@std@@@01@0@Z
pdata	ENDS
;	COMDAT pdata
pdata	SEGMENT
$pdata$??$?GUsteady_clock@chrono@std@@V?$duration@_JU?$ratio@$00$0DLJKMKAA@@std@@@12@_JU?$ratio@$00$0DOI@@2@@chrono@std@@YA?AV?$time_point@Usteady_clock@chrono@std@@V?$duration@_JU?$ratio@$00$0DLJKMKAA@@std@@@23@@01@AEBV201@AEBV?$duration@_JU?$ratio@$00$0DOI@@std@@@01@@Z DD imagerel $LN3
	DD	imagerel $LN3+77
	DD	imagerel $unwind$??$?GUsteady_clock@chrono@std@@V?$duration@_JU?$ratio@$00$0DLJKMKAA@@std@@@12@_JU?$ratio@$00$0DOI@@2@@chrono@std@@YA?AV?$time_point@Usteady_clock@chrono@std@@V?$duration@_JU?$ratio@$00$0DLJKMKAA@@std@@@23@@01@AEBV201@AEBV?$duration@_JU?$ratio@$00$0DOI@@std@@@01@@Z
pdata	ENDS
;	COMDAT pdata
pdata	SEGMENT
$pdata$??$?__M_JU?$ratio@$00$0DLJKMKAA@@std@@_JU01@@chrono@std@@YA?A_PAEBV?$duration@_JU?$ratio@$00$0DLJKMKAA@@std@@@01@0@Z DD imagerel $LN7
	DD	imagerel $LN7+203
	DD	imagerel $unwind$??$?__M_JU?$ratio@$00$0DLJKMKAA@@std@@_JU01@@chrono@std@@YA?A_PAEBV?$duration@_JU?$ratio@$00$0DLJKMKAA@@std@@@01@0@Z
pdata	ENDS
;	COMDAT pdata
pdata	SEGMENT
$pdata$??$?__MUsteady_clock@chrono@std@@V?$duration@_JU?$ratio@$00$0DLJKMKAA@@std@@@12@V312@@chrono@std@@YA?A_PAEBV?$time_point@Usteady_clock@chrono@std@@V?$duration@_JU?$ratio@$00$0DLJKMKAA@@std@@@23@@01@0@Z DD imagerel $LN3
	DD	imagerel $LN3+85
	DD	imagerel $unwind$??$?__MUsteady_clock@chrono@std@@V?$duration@_JU?$ratio@$00$0DLJKMKAA@@std@@@12@V312@@chrono@std@@YA?A_PAEBV?$time_point@Usteady_clock@chrono@std@@V?$duration@_JU?$ratio@$00$0DLJKMKAA@@std@@@23@@01@0@Z
pdata	ENDS
;	COMDAT pdata
pdata	SEGMENT
$pdata$??$?0_JU?$ratio@$00$0DOI@@std@@$0A@@?$duration@_JU?$ratio@$00$0DLJKMKAA@@std@@@chrono@std@@QEAA@AEBV?$duration@_JU?$ratio@$00$0DOI@@std@@@12@@Z DD imagerel $LN3
	DD	imagerel $LN3+57
	DD	imagerel $unwind$??$?0_JU?$ratio@$00$0DOI@@std@@$0A@@?$duration@_JU?$ratio@$00$0DLJKMKAA@@std@@@chrono@std@@QEAA@AEBV?$duration@_JU?$ratio@$00$0DOI@@std@@@12@@Z
pdata	ENDS
;	COMDAT pdata
pdata	SEGMENT
$pdata$??$sleep_until@Usteady_clock@chrono@std@@V?$duration@_JU?$ratio@$00$0DLJKMKAA@@std@@@23@@this_thread@std@@YAXAEBV?$time_point@Usteady_clock@chrono@std@@V?$duration@_JU?$ratio@$00$0DLJKMKAA@@std@@@23@@chrono@1@@Z DD imagerel $LN7
	DD	imagerel $LN7+247
	DD	imagerel $unwind$??$sleep_until@Usteady_clock@chrono@std@@V?$duration@_JU?$ratio@$00$0DLJKMKAA@@std@@@23@@this_thread@std@@YAXAEBV?$time_point@Usteady_clock@chrono@std@@V?$duration@_JU?$ratio@$00$0DLJKMKAA@@std@@@23@@chrono@1@@Z
pdata	ENDS
;	COMDAT pdata
pdata	SEGMENT
$pdata$??$?G_JU?$ratio@$00$0DLJKMKAA@@std@@_JU?$ratio@$00$0DOI@@1@@chrono@std@@YA?AV?$duration@_JU?$ratio@$00$0DLJKMKAA@@std@@@01@AEBV201@AEBV?$duration@_JU?$ratio@$00$0DOI@@std@@@01@@Z DD imagerel $LN3
	DD	imagerel $LN3+113
	DD	imagerel $unwind$??$?G_JU?$ratio@$00$0DLJKMKAA@@std@@_JU?$ratio@$00$0DOI@@1@@chrono@std@@YA?AV?$duration@_JU?$ratio@$00$0DLJKMKAA@@std@@@01@AEBV201@AEBV?$duration@_JU?$ratio@$00$0DOI@@std@@@01@@Z
pdata	ENDS
;	COMDAT pdata
pdata	SEGMENT
$pdata$??$duration_cast@V?$duration@_JU?$ratio@$00$0DLJKMKAA@@std@@@chrono@std@@_JU?$ratio@$00$0DOI@@3@$0A@@chrono@std@@YA?AV?$duration@_JU?$ratio@$00$0DLJKMKAA@@std@@@01@AEBV?$duration@_JU?$ratio@$00$0DOI@@std@@@01@@Z DD imagerel $LN3
	DD	imagerel $LN3+73
	DD	imagerel $unwind$??$duration_cast@V?$duration@_JU?$ratio@$00$0DLJKMKAA@@std@@@chrono@std@@_JU?$ratio@$00$0DOI@@3@$0A@@chrono@std@@YA?AV?$duration@_JU?$ratio@$00$0DLJKMKAA@@std@@@01@AEBV?$duration@_JU?$ratio@$00$0DOI@@std@@@01@@Z
pdata	ENDS
;	COMDAT pdata
pdata	SEGMENT
$pdata$??$?GUsteady_clock@chrono@std@@V?$duration@_JU?$ratio@$00$0DLJKMKAA@@std@@@12@V312@@chrono@std@@YA?AV?$duration@_JU?$ratio@$00$0DLJKMKAA@@std@@@01@AEBV?$time_point@Usteady_clock@chrono@std@@V?$duration@_JU?$ratio@$00$0DLJKMKAA@@std@@@23@@01@0@Z DD imagerel $LN3
	DD	imagerel $LN3+91
	DD	imagerel $unwind$??$?GUsteady_clock@chrono@std@@V?$duration@_JU?$ratio@$00$0DLJKMKAA@@std@@@12@V312@@chrono@std@@YA?AV?$duration@_JU?$ratio@$00$0DLJKMKAA@@std@@@01@AEBV?$time_point@Usteady_clock@chrono@std@@V?$duration@_JU?$ratio@$00$0DLJKMKAA@@std@@@23@@01@0@Z
pdata	ENDS
;	COMDAT pdata
pdata	SEGMENT
$pdata$??$_To_timespec64_sys_10_day_clamped@_JU?$ratio@$00$0DLJKMKAA@@std@@@std@@YA_NAEAU_timespec64@@AEBV?$duration@_JU?$ratio@$00$0DLJKMKAA@@std@@@chrono@0@@Z DD imagerel $LN5
	DD	imagerel $LN5+429
	DD	imagerel $unwind$??$_To_timespec64_sys_10_day_clamped@_JU?$ratio@$00$0DLJKMKAA@@std@@@std@@YA_NAEAU_timespec64@@AEBV?$duration@_JU?$ratio@$00$0DLJKMKAA@@std@@@chrono@0@@Z
pdata	ENDS
;	COMDAT pdata
pdata	SEGMENT
$pdata$??$?G_JU?$ratio@$00$0DLJKMKAA@@std@@_JU01@@chrono@std@@YA?AV?$duration@_JU?$ratio@$00$0DLJKMKAA@@std@@@01@AEBV201@0@Z DD imagerel $LN3
	DD	imagerel $LN3+113
	DD	imagerel $unwind$??$?G_JU?$ratio@$00$0DLJKMKAA@@std@@_JU01@@chrono@std@@YA?AV?$duration@_JU?$ratio@$00$0DLJKMKAA@@std@@@01@AEBV201@0@Z
pdata	ENDS
;	COMDAT pdata
pdata	SEGMENT
$pdata$??$?0_JU?$ratio@$00$0JIJGIA@@std@@$0A@@?$duration@_JU?$ratio@$00$0DLJKMKAA@@std@@@chrono@std@@QEAA@AEBV?$duration@_JU?$ratio@$00$0JIJGIA@@std@@@12@@Z DD imagerel $LN3
	DD	imagerel $LN3+57
	DD	imagerel $unwind$??$?0_JU?$ratio@$00$0JIJGIA@@std@@$0A@@?$duration@_JU?$ratio@$00$0DLJKMKAA@@std@@@chrono@std@@QEAA@AEBV?$duration@_JU?$ratio@$00$0JIJGIA@@std@@@12@@Z
pdata	ENDS
;	COMDAT pdata
pdata	SEGMENT
$pdata$??$?__MNU?$ratio@$00$00@std@@_JU?$ratio@$00$0DLJKMKAA@@1@@chrono@std@@YA?A_PAEBV?$duration@NU?$ratio@$00$00@std@@@01@AEBV?$duration@_JU?$ratio@$00$0DLJKMKAA@@std@@@01@@Z DD imagerel $LN9
	DD	imagerel $LN9+295
	DD	imagerel $unwind$??$?__MNU?$ratio@$00$00@std@@_JU?$ratio@$00$0DLJKMKAA@@1@@chrono@std@@YA?A_PAEBV?$duration@NU?$ratio@$00$00@std@@@01@AEBV?$duration@_JU?$ratio@$00$0DLJKMKAA@@std@@@01@@Z
pdata	ENDS
;	COMDAT pdata
pdata	SEGMENT
$pdata$??$?0NU?$ratio@$00$00@std@@$0A@@?$duration@NU?$ratio@$00$0DLJKMKAA@@std@@@chrono@std@@QEAA@AEBV?$duration@NU?$ratio@$00$00@std@@@12@@Z DD imagerel $LN3
	DD	imagerel $LN3+58
	DD	imagerel $unwind$??$?0NU?$ratio@$00$00@std@@$0A@@?$duration@NU?$ratio@$00$0DLJKMKAA@@std@@@chrono@std@@QEAA@AEBV?$duration@NU?$ratio@$00$00@std@@@12@@Z
pdata	ENDS
;	COMDAT pdata
pdata	SEGMENT
$pdata$??$?0_JU?$ratio@$00$0DLJKMKAA@@std@@$0A@@?$duration@NU?$ratio@$00$0DLJKMKAA@@std@@@chrono@std@@QEAA@AEBV?$duration@_JU?$ratio@$00$0DLJKMKAA@@std@@@12@@Z DD imagerel $LN3
	DD	imagerel $LN3+58
	DD	imagerel $unwind$??$?0_JU?$ratio@$00$0DLJKMKAA@@std@@$0A@@?$duration@NU?$ratio@$00$0DLJKMKAA@@std@@@chrono@std@@QEAA@AEBV?$duration@_JU?$ratio@$00$0DLJKMKAA@@std@@@12@@Z
pdata	ENDS
;	COMDAT pdata
pdata	SEGMENT
$pdata$??$duration_cast@V?$duration@_JU?$ratio@$00$0DLJKMKAA@@std@@@chrono@std@@_JU?$ratio@$00$0DLJKMKAA@@3@$0A@@chrono@std@@YA?AV?$duration@_JU?$ratio@$00$0DLJKMKAA@@std@@@01@AEBV201@@Z DD imagerel $LN3
	DD	imagerel $LN3+66
	DD	imagerel $unwind$??$duration_cast@V?$duration@_JU?$ratio@$00$0DLJKMKAA@@std@@@chrono@std@@_JU?$ratio@$00$0DLJKMKAA@@3@$0A@@chrono@std@@YA?AV?$duration@_JU?$ratio@$00$0DLJKMKAA@@std@@@01@AEBV201@@Z
pdata	ENDS
;	COMDAT pdata
pdata	SEGMENT
$pdata$??$duration_cast@V?$duration@_JU?$ratio@$00$0DLJKMKAA@@std@@@chrono@std@@_JU?$ratio@$00$00@3@$0A@@chrono@std@@YA?AV?$duration@_JU?$ratio@$00$0DLJKMKAA@@std@@@01@AEBV?$duration@_JU?$ratio@$00$00@std@@@01@@Z DD imagerel $LN3
	DD	imagerel $LN3+73
	DD	imagerel $unwind$??$duration_cast@V?$duration@_JU?$ratio@$00$0DLJKMKAA@@std@@@chrono@std@@_JU?$ratio@$00$00@3@$0A@@chrono@std@@YA?AV?$duration@_JU?$ratio@$00$0DLJKMKAA@@std@@@01@AEBV?$duration@_JU?$ratio@$00$00@std@@@01@@Z
pdata	ENDS
;	COMDAT pdata
pdata	SEGMENT
$pdata$??$duration_cast@V?$duration@_JU?$ratio@$00$0DLJKMKAA@@std@@@chrono@std@@_JU?$ratio@$00$0JIJGIA@@3@$0A@@chrono@std@@YA?AV?$duration@_JU?$ratio@$00$0DLJKMKAA@@std@@@01@AEBV?$duration@_JU?$ratio@$00$0JIJGIA@@std@@@01@@Z DD imagerel $LN3
	DD	imagerel $LN3+70
	DD	imagerel $unwind$??$duration_cast@V?$duration@_JU?$ratio@$00$0DLJKMKAA@@std@@@chrono@std@@_JU?$ratio@$00$0JIJGIA@@3@$0A@@chrono@std@@YA?AV?$duration@_JU?$ratio@$00$0DLJKMKAA@@std@@@01@AEBV?$duration@_JU?$ratio@$00$0JIJGIA@@std@@@01@@Z
pdata	ENDS
;	COMDAT pdata
pdata	SEGMENT
$pdata$??$duration_cast@V?$duration@NU?$ratio@$00$0DLJKMKAA@@std@@@chrono@std@@NU?$ratio@$00$00@3@$0A@@chrono@std@@YA?AV?$duration@NU?$ratio@$00$0DLJKMKAA@@std@@@01@AEBV?$duration@NU?$ratio@$00$00@std@@@01@@Z DD imagerel $LN3
	DD	imagerel $LN3+75
	DD	imagerel $unwind$??$duration_cast@V?$duration@NU?$ratio@$00$0DLJKMKAA@@std@@@chrono@std@@NU?$ratio@$00$00@3@$0A@@chrono@std@@YA?AV?$duration@NU?$ratio@$00$0DLJKMKAA@@std@@@01@AEBV?$duration@NU?$ratio@$00$00@std@@@01@@Z
pdata	ENDS
;	COMDAT pdata
pdata	SEGMENT
$pdata$??$duration_cast@V?$duration@NU?$ratio@$00$0DLJKMKAA@@std@@@chrono@std@@_JU?$ratio@$00$0DLJKMKAA@@3@$0A@@chrono@std@@YA?AV?$duration@NU?$ratio@$00$0DLJKMKAA@@std@@@01@AEBV?$duration@_JU?$ratio@$00$0DLJKMKAA@@std@@@01@@Z DD imagerel $LN3
	DD	imagerel $LN3+72
	DD	imagerel $unwind$??$duration_cast@V?$duration@NU?$ratio@$00$0DLJKMKAA@@std@@@chrono@std@@_JU?$ratio@$00$0DLJKMKAA@@3@$0A@@chrono@std@@YA?AV?$duration@NU?$ratio@$00$0DLJKMKAA@@std@@@01@AEBV?$duration@_JU?$ratio@$00$0DLJKMKAA@@std@@@01@@Z
pdata	ENDS
;	COMDAT pdata
pdata	SEGMENT
$pdata$??$?0N$0A@@?$duration@NU?$ratio@$00$0DLJKMKAA@@std@@@chrono@std@@QEAA@AEBN@Z DD imagerel $LN3
	DD	imagerel $LN3+36
	DD	imagerel $unwind$??$?0N$0A@@?$duration@NU?$ratio@$00$0DLJKMKAA@@std@@@chrono@std@@QEAA@AEBN@Z
pdata	ENDS
;	COMDAT __real@41cdcd6500000000
CONST	SEGMENT
__real@41cdcd6500000000 DQ 041cdcd6500000000r	; 1e+09
CONST	ENDS
;	COMDAT __real@412a5e0000000000
CONST	SEGMENT
__real@412a5e0000000000 DQ 0412a5e0000000000r	; 864000
CONST	ENDS
;	COMDAT rtc$TMZ
rtc$TMZ	SEGMENT
_RTC_Shutdown.rtc$TMZ DQ FLAT:_RTC_Shutdown
rtc$TMZ	ENDS
;	COMDAT rtc$IMZ
rtc$IMZ	SEGMENT
_RTC_InitBase.rtc$IMZ DQ FLAT:_RTC_InitBase
rtc$IMZ	ENDS
;	COMDAT ?greater@strong_ordering@std@@2U12@B
CONST	SEGMENT
?greater@strong_ordering@std@@2U12@B DB 01H		; std::strong_ordering::greater
CONST	ENDS
;	COMDAT ?equal@strong_ordering@std@@2U12@B
CONST	SEGMENT
?equal@strong_ordering@std@@2U12@B DB 00H		; std::strong_ordering::equal
CONST	ENDS
;	COMDAT ?less@strong_ordering@std@@2U12@B
CONST	SEGMENT
?less@strong_ordering@std@@2U12@B DB 0ffH		; std::strong_ordering::less
CONST	ENDS
;	COMDAT ?unordered@partial_ordering@std@@2U12@B
CONST	SEGMENT
?unordered@partial_ordering@std@@2U12@B DB 080H		; std::partial_ordering::unordered
CONST	ENDS
;	COMDAT ?greater@partial_ordering@std@@2U12@B
CONST	SEGMENT
?greater@partial_ordering@std@@2U12@B DB 01H		; std::partial_ordering::greater
CONST	ENDS
;	COMDAT ?equivalent@partial_ordering@std@@2U12@B
CONST	SEGMENT
?equivalent@partial_ordering@std@@2U12@B DB 00H		; std::partial_ordering::equivalent
CONST	ENDS
;	COMDAT ?less@partial_ordering@std@@2U12@B
CONST	SEGMENT
?less@partial_ordering@std@@2U12@B DB 0ffH		; std::partial_ordering::less
CONST	ENDS
;	COMDAT xdata
xdata	SEGMENT
$unwind$??$?0N$0A@@?$duration@NU?$ratio@$00$0DLJKMKAA@@std@@@chrono@std@@QEAA@AEBN@Z DD 010b01H
	DD	0700bH
xdata	ENDS
;	COMDAT xdata
xdata	SEGMENT
$unwind$??$duration_cast@V?$duration@NU?$ratio@$00$0DLJKMKAA@@std@@@chrono@std@@_JU?$ratio@$00$0DLJKMKAA@@3@$0A@@chrono@std@@YA?AV?$duration@NU?$ratio@$00$0DLJKMKAA@@std@@@01@AEBV?$duration@_JU?$ratio@$00$0DLJKMKAA@@std@@@01@@Z DD 020f01H
	DD	0700b520fH
xdata	ENDS
;	COMDAT xdata
xdata	SEGMENT
$unwind$??$duration_cast@V?$duration@NU?$ratio@$00$0DLJKMKAA@@std@@@chrono@std@@NU?$ratio@$00$00@3@$0A@@chrono@std@@YA?AV?$duration@NU?$ratio@$00$0DLJKMKAA@@std@@@01@AEBV?$duration@NU?$ratio@$00$00@std@@@01@@Z DD 020f01H
	DD	0700b520fH
xdata	ENDS
;	COMDAT xdata
xdata	SEGMENT
$unwind$??$duration_cast@V?$duration@_JU?$ratio@$00$0DLJKMKAA@@std@@@chrono@std@@_JU?$ratio@$00$0JIJGIA@@3@$0A@@chrono@std@@YA?AV?$duration@_JU?$ratio@$00$0DLJKMKAA@@std@@@01@AEBV?$duration@_JU?$ratio@$00$0JIJGIA@@std@@@01@@Z DD 020f01H
	DD	0700b520fH
xdata	ENDS
;	COMDAT xdata
xdata	SEGMENT
$unwind$??$duration_cast@V?$duration@_JU?$ratio@$00$0DLJKMKAA@@std@@@chrono@std@@_JU?$ratio@$00$00@3@$0A@@chrono@std@@YA?AV?$duration@_JU?$ratio@$00$0DLJKMKAA@@std@@@01@AEBV?$duration@_JU?$ratio@$00$00@std@@@01@@Z DD 020f01H
	DD	0700b520fH
xdata	ENDS
;	COMDAT xdata
xdata	SEGMENT
$unwind$??$duration_cast@V?$duration@_JU?$ratio@$00$0DLJKMKAA@@std@@@chrono@std@@_JU?$ratio@$00$0DLJKMKAA@@3@$0A@@chrono@std@@YA?AV?$duration@_JU?$ratio@$00$0DLJKMKAA@@std@@@01@AEBV201@@Z DD 020f01H
	DD	0700b520fH
xdata	ENDS
;	COMDAT xdata
xdata	SEGMENT
$unwind$??$?0_JU?$ratio@$00$0DLJKMKAA@@std@@$0A@@?$duration@NU?$ratio@$00$0DLJKMKAA@@std@@@chrono@std@@QEAA@AEBV?$duration@_JU?$ratio@$00$0DLJKMKAA@@std@@@12@@Z DD 020f01H
	DD	0700b520fH
xdata	ENDS
;	COMDAT xdata
xdata	SEGMENT
$unwind$??$?0NU?$ratio@$00$00@std@@$0A@@?$duration@NU?$ratio@$00$0DLJKMKAA@@std@@@chrono@std@@QEAA@AEBV?$duration@NU?$ratio@$00$00@std@@@12@@Z DD 020f01H
	DD	0700b520fH
xdata	ENDS
;	COMDAT xdata
xdata	SEGMENT
$unwind$??$?__MNU?$ratio@$00$00@std@@_JU?$ratio@$00$0DLJKMKAA@@1@@chrono@std@@YA?A_PAEBV?$duration@NU?$ratio@$00$00@std@@@01@AEBV?$duration@_JU?$ratio@$00$0DLJKMKAA@@std@@@01@@Z DD 021201H
	DD	0700bf212H
xdata	ENDS
;	COMDAT xdata
xdata	SEGMENT
$unwind$??$?0_JU?$ratio@$00$0JIJGIA@@std@@$0A@@?$duration@_JU?$ratio@$00$0DLJKMKAA@@std@@@chrono@std@@QEAA@AEBV?$duration@_JU?$ratio@$00$0JIJGIA@@std@@@12@@Z DD 020f01H
	DD	0700b520fH
xdata	ENDS
;	COMDAT xdata
xdata	SEGMENT
$unwind$??$?G_JU?$ratio@$00$0DLJKMKAA@@std@@_JU01@@chrono@std@@YA?AV?$duration@_JU?$ratio@$00$0DLJKMKAA@@std@@@01@AEBV201@0@Z DD 021401H
	DD	070107214H
xdata	ENDS
;	COMDAT xdata
xdata	SEGMENT
$unwind$??$_To_timespec64_sys_10_day_clamped@_JU?$ratio@$00$0DLJKMKAA@@std@@@std@@YA_NAEAU_timespec64@@AEBV?$duration@_JU?$ratio@$00$0DLJKMKAA@@std@@@chrono@0@@Z DD 032b01H
	DD	0180112H
	DD	0700bH
xdata	ENDS
;	COMDAT CONST
CONST	SEGMENT
??$_To_timespec64_sys_10_day_clamped@_JU?$ratio@$00$0DLJKMKAA@@std@@@std@@YA_NAEAU_timespec64@@AEBV?$duration@_JU?$ratio@$00$0DLJKMKAA@@std@@@chrono@0@@Z$rtcName$0 DB 05fH ; std::_To_timespec64_sys_10_day_clamped<__int64,std::ratio<1,1000000000> >
	DB	054H
	DB	065H
	DB	06eH
	DB	05fH
	DB	064H
	DB	061H
	DB	079H
	DB	073H
	DB	00H
	ORG $+6
??$_To_timespec64_sys_10_day_clamped@_JU?$ratio@$00$0DLJKMKAA@@std@@@std@@YA_NAEAU_timespec64@@AEBV?$duration@_JU?$ratio@$00$0DLJKMKAA@@std@@@chrono@0@@Z$rtcName$1 DB 05fH ; std::_To_timespec64_sys_10_day_clamped<__int64,std::ratio<1,1000000000> >
	DB	054H
	DB	065H
	DB	06eH
	DB	05fH
	DB	064H
	DB	061H
	DB	079H
	DB	073H
	DB	05fH
	DB	064H
	DB	00H
??$_To_timespec64_sys_10_day_clamped@_JU?$ratio@$00$0DLJKMKAA@@std@@@std@@YA_NAEAU_timespec64@@AEBV?$duration@_JU?$ratio@$00$0DLJKMKAA@@std@@@chrono@0@@Z$rtcName$2 DB 05fH ; std::_To_timespec64_sys_10_day_clamped<__int64,std::ratio<1,1000000000> >
	DB	054H
	DB	078H
	DB	030H
	DB	00H
	ORG $+7
??$_To_timespec64_sys_10_day_clamped@_JU?$ratio@$00$0DLJKMKAA@@std@@@std@@YA_NAEAU_timespec64@@AEBV?$duration@_JU?$ratio@$00$0DLJKMKAA@@std@@@chrono@0@@Z$rtcName$3 DB 05fH ; std::_To_timespec64_sys_10_day_clamped<__int64,std::ratio<1,1000000000> >
	DB	057H
	DB	068H
	DB	06fH
	DB	06cH
	DB	065H
	DB	05fH
	DB	073H
	DB	065H
	DB	063H
	DB	06fH
	DB	06eH
	DB	064H
	DB	073H
	DB	00H
	ORG $+9
??$_To_timespec64_sys_10_day_clamped@_JU?$ratio@$00$0DLJKMKAA@@std@@@std@@YA_NAEAU_timespec64@@AEBV?$duration@_JU?$ratio@$00$0DLJKMKAA@@std@@@chrono@0@@Z$rtcVarDesc DD 088H ; std::_To_timespec64_sys_10_day_clamped<__int64,std::ratio<1,1000000000> >
	DD	08H
	DQ	FLAT:??$_To_timespec64_sys_10_day_clamped@_JU?$ratio@$00$0DLJKMKAA@@std@@@std@@YA_NAEAU_timespec64@@AEBV?$duration@_JU?$ratio@$00$0DLJKMKAA@@std@@@chrono@0@@Z$rtcName$3
	DD	068H
	DD	08H
	DQ	FLAT:??$_To_timespec64_sys_10_day_clamped@_JU?$ratio@$00$0DLJKMKAA@@std@@@std@@YA_NAEAU_timespec64@@AEBV?$duration@_JU?$ratio@$00$0DLJKMKAA@@std@@@chrono@0@@Z$rtcName$2
	DD	048H
	DD	08H
	DQ	FLAT:??$_To_timespec64_sys_10_day_clamped@_JU?$ratio@$00$0DLJKMKAA@@std@@@std@@YA_NAEAU_timespec64@@AEBV?$duration@_JU?$ratio@$00$0DLJKMKAA@@std@@@chrono@0@@Z$rtcName$1
	DD	028H
	DD	08H
	DQ	FLAT:??$_To_timespec64_sys_10_day_clamped@_JU?$ratio@$00$0DLJKMKAA@@std@@@std@@YA_NAEAU_timespec64@@AEBV?$duration@_JU?$ratio@$00$0DLJKMKAA@@std@@@chrono@0@@Z$rtcName$0
	ORG $+192
??$_To_timespec64_sys_10_day_clamped@_JU?$ratio@$00$0DLJKMKAA@@std@@@std@@YA_NAEAU_timespec64@@AEBV?$duration@_JU?$ratio@$00$0DLJKMKAA@@std@@@chrono@0@@Z$rtcFrameData DD 04H ; std::_To_timespec64_sys_10_day_clamped<__int64,std::ratio<1,1000000000> >
	DD	00H
	DQ	FLAT:??$_To_timespec64_sys_10_day_clamped@_JU?$ratio@$00$0DLJKMKAA@@std@@@std@@YA_NAEAU_timespec64@@AEBV?$duration@_JU?$ratio@$00$0DLJKMKAA@@std@@@chrono@0@@Z$rtcVarDesc
CONST	ENDS
;	COMDAT xdata
xdata	SEGMENT
$unwind$??$?GUsteady_clock@chrono@std@@V?$duration@_JU?$ratio@$00$0DLJKMKAA@@std@@@12@V312@@chrono@std@@YA?AV?$duration@_JU?$ratio@$00$0DLJKMKAA@@std@@@01@AEBV?$time_point@Usteady_clock@chrono@std@@V?$duration@_JU?$ratio@$00$0DLJKMKAA@@std@@@23@@01@0@Z DD 021401H
	DD	070107214H
xdata	ENDS
;	COMDAT xdata
xdata	SEGMENT
$unwind$??$duration_cast@V?$duration@_JU?$ratio@$00$0DLJKMKAA@@std@@@chrono@std@@_JU?$ratio@$00$0DOI@@3@$0A@@chrono@std@@YA?AV?$duration@_JU?$ratio@$00$0DLJKMKAA@@std@@@01@AEBV?$duration@_JU?$ratio@$00$0DOI@@std@@@01@@Z DD 020f01H
	DD	0700b520fH
xdata	ENDS
;	COMDAT xdata
xdata	SEGMENT
$unwind$??$?G_JU?$ratio@$00$0DLJKMKAA@@std@@_JU?$ratio@$00$0DOI@@1@@chrono@std@@YA?AV?$duration@_JU?$ratio@$00$0DLJKMKAA@@std@@@01@AEBV201@AEBV?$duration@_JU?$ratio@$00$0DOI@@std@@@01@@Z DD 021401H
	DD	070107214H
xdata	ENDS
;	COMDAT voltbl
voltbl	SEGMENT
_volmd	DB	030H
	DB	0deH
voltbl	ENDS
;	COMDAT xdata
xdata	SEGMENT
$unwind$??$sleep_until@Usteady_clock@chrono@std@@V?$duration@_JU?$ratio@$00$0DLJKMKAA@@std@@@23@@this_thread@std@@YAXAEBV?$time_point@Usteady_clock@chrono@std@@V?$duration@_JU?$ratio@$00$0DLJKMKAA@@std@@@23@@chrono@1@@Z DD 033819H
	DD	012010dH
	DD	07006H
	DD	imagerel __GSHandlerCheck
	DD	080H
xdata	ENDS
;	COMDAT CONST
CONST	SEGMENT
??$sleep_until@Usteady_clock@chrono@std@@V?$duration@_JU?$ratio@$00$0DLJKMKAA@@std@@@23@@this_thread@std@@YAXAEBV?$time_point@Usteady_clock@chrono@std@@V?$duration@_JU?$ratio@$00$0DLJKMKAA@@std@@@23@@chrono@1@@Z$rtcName$0 DB 05fH ; std::this_thread::sleep_until<std::chrono::steady_clock,std::chrono::duration<__int64,std::ratio<1,1000000000> > >
	DB	04eH
	DB	06fH
	DB	077H
	DB	00H
	ORG $+3
??$sleep_until@Usteady_clock@chrono@std@@V?$duration@_JU?$ratio@$00$0DLJKMKAA@@std@@@23@@this_thread@std@@YAXAEBV?$time_point@Usteady_clock@chrono@std@@V?$duration@_JU?$ratio@$00$0DLJKMKAA@@std@@@23@@chrono@1@@Z$rtcName$1 DB 05fH ; std::this_thread::sleep_until<std::chrono::steady_clock,std::chrono::duration<__int64,std::ratio<1,1000000000> > >
	DB	054H
	DB	067H
	DB	074H
	DB	00H
	ORG $+3
??$sleep_until@Usteady_clock@chrono@std@@V?$duration@_JU?$ratio@$00$0DLJKMKAA@@std@@@23@@this_thread@std@@YAXAEBV?$time_point@Usteady_clock@chrono@std@@V?$duration@_JU?$ratio@$00$0DLJKMKAA@@std@@@23@@chrono@1@@Z$rtcVarDesc DD 048H ; std::this_thread::sleep_until<std::chrono::steady_clock,std::chrono::duration<__int64,std::ratio<1,1000000000> > >
	DD	010H
	DQ	FLAT:??$sleep_until@Usteady_clock@chrono@std@@V?$duration@_JU?$ratio@$00$0DLJKMKAA@@std@@@23@@this_thread@std@@YAXAEBV?$time_point@Usteady_clock@chrono@std@@V?$duration@_JU?$ratio@$00$0DLJKMKAA@@std@@@23@@chrono@1@@Z$rtcName$1
	DD	028H
	DD	08H
	DQ	FLAT:??$sleep_until@Usteady_clock@chrono@std@@V?$duration@_JU?$ratio@$00$0DLJKMKAA@@std@@@23@@this_thread@std@@YAXAEBV?$time_point@Usteady_clock@chrono@std@@V?$duration@_JU?$ratio@$00$0DLJKMKAA@@std@@@23@@chrono@1@@Z$rtcName$0
	ORG $+96
??$sleep_until@Usteady_clock@chrono@std@@V?$duration@_JU?$ratio@$00$0DLJKMKAA@@std@@@23@@this_thread@std@@YAXAEBV?$time_point@Usteady_clock@chrono@std@@V?$duration@_JU?$ratio@$00$0DLJKMKAA@@std@@@23@@chrono@1@@Z$rtcFrameData DD 02H ; std::this_thread::sleep_until<std::chrono::steady_clock,std::chrono::duration<__int64,std::ratio<1,1000000000> > >
	DD	00H
	DQ	FLAT:??$sleep_until@Usteady_clock@chrono@std@@V?$duration@_JU?$ratio@$00$0DLJKMKAA@@std@@@23@@this_thread@std@@YAXAEBV?$time_point@Usteady_clock@chrono@std@@V?$duration@_JU?$ratio@$00$0DLJKMKAA@@std@@@23@@chrono@1@@Z$rtcVarDesc
CONST	ENDS
;	COMDAT xdata
xdata	SEGMENT
$unwind$??$?0_JU?$ratio@$00$0DOI@@std@@$0A@@?$duration@_JU?$ratio@$00$0DLJKMKAA@@std@@@chrono@std@@QEAA@AEBV?$duration@_JU?$ratio@$00$0DOI@@std@@@12@@Z DD 020f01H
	DD	0700b520fH
xdata	ENDS
;	COMDAT xdata
xdata	SEGMENT
$unwind$??$?__MUsteady_clock@chrono@std@@V?$duration@_JU?$ratio@$00$0DLJKMKAA@@std@@@12@V312@@chrono@std@@YA?A_PAEBV?$time_point@Usteady_clock@chrono@std@@V?$duration@_JU?$ratio@$00$0DLJKMKAA@@std@@@23@@01@0@Z DD 020f01H
	DD	0700b920fH
xdata	ENDS
;	COMDAT xdata
xdata	SEGMENT
$unwind$??$?__M_JU?$ratio@$00$0DLJKMKAA@@std@@_JU01@@chrono@std@@YA?A_PAEBV?$duration@_JU?$ratio@$00$0DLJKMKAA@@std@@@01@0@Z DD 020f01H
	DD	0700bb20fH
xdata	ENDS
;	COMDAT xdata
xdata	SEGMENT
$unwind$??$?GUsteady_clock@chrono@std@@V?$duration@_JU?$ratio@$00$0DLJKMKAA@@std@@@12@_JU?$ratio@$00$0DOI@@2@@chrono@std@@YA?AV?$time_point@Usteady_clock@chrono@std@@V?$duration@_JU?$ratio@$00$0DLJKMKAA@@std@@@23@@01@AEBV201@AEBV?$duration@_JU?$ratio@$00$0DOI@@std@@@01@@Z DD 021401H
	DD	070105214H
xdata	ENDS
;	COMDAT xdata
xdata	SEGMENT
$unwind$??$?__M_JU?$ratio@$00$0DOI@@std@@_JU01@@chrono@std@@YA?A_PAEBV?$duration@_JU?$ratio@$00$0DOI@@std@@@01@0@Z DD 020f01H
	DD	0700bb20fH
xdata	ENDS
;	COMDAT xdata
xdata	SEGMENT
$unwind$??$_To_absolute_time@_JU?$ratio@$00$0DOI@@std@@@std@@YA?A_PAEBV?$duration@_JU?$ratio@$00$0DOI@@std@@@chrono@0@@Z DD 032b01H
	DD	0180112H
	DD	0700bH
xdata	ENDS
;	COMDAT CONST
CONST	SEGMENT
??$_To_absolute_time@_JU?$ratio@$00$0DOI@@std@@@std@@YA?A_PAEBV?$duration@_JU?$ratio@$00$0DOI@@std@@@chrono@0@@Z$rtcName$0 DB 05fH ; std::_To_absolute_time<__int64,std::ratio<1,1000> >
	DB	05aH
	DB	065H
	DB	072H
	DB	06fH
	DB	00H
	ORG $+2
??$_To_absolute_time@_JU?$ratio@$00$0DOI@@std@@@std@@YA?A_PAEBV?$duration@_JU?$ratio@$00$0DOI@@std@@@chrono@0@@Z$rtcName$1 DB 05fH ; std::_To_absolute_time<__int64,std::ratio<1,1000> >
	DB	04eH
	DB	06fH
	DB	077H
	DB	00H
	ORG $+3
??$_To_absolute_time@_JU?$ratio@$00$0DOI@@std@@@std@@YA?A_PAEBV?$duration@_JU?$ratio@$00$0DOI@@std@@@chrono@0@@Z$rtcName$2 DB 05fH ; std::_To_absolute_time<__int64,std::ratio<1,1000> >
	DB	041H
	DB	062H
	DB	073H
	DB	05fH
	DB	074H
	DB	069H
	DB	06dH
	DB	065H
	DB	00H
	ORG $+6
??$_To_absolute_time@_JU?$ratio@$00$0DOI@@std@@@std@@YA?A_PAEBV?$duration@_JU?$ratio@$00$0DOI@@std@@@chrono@0@@Z$rtcName$3 DB 05fH ; std::_To_absolute_time<__int64,std::ratio<1,1000> >
	DB	046H
	DB	06fH
	DB	072H
	DB	065H
	DB	076H
	DB	065H
	DB	072H
	DB	00H
	ORG $+7
??$_To_absolute_time@_JU?$ratio@$00$0DOI@@std@@@std@@YA?A_PAEBV?$duration@_JU?$ratio@$00$0DOI@@std@@@chrono@0@@Z$rtcVarDesc DD 088H ; std::_To_absolute_time<__int64,std::ratio<1,1000> >
	DD	08H
	DQ	FLAT:??$_To_absolute_time@_JU?$ratio@$00$0DOI@@std@@@std@@YA?A_PAEBV?$duration@_JU?$ratio@$00$0DOI@@std@@@chrono@0@@Z$rtcName$3
	DD	068H
	DD	08H
	DQ	FLAT:??$_To_absolute_time@_JU?$ratio@$00$0DOI@@std@@@std@@YA?A_PAEBV?$duration@_JU?$ratio@$00$0DOI@@std@@@chrono@0@@Z$rtcName$2
	DD	048H
	DD	08H
	DQ	FLAT:??$_To_absolute_time@_JU?$ratio@$00$0DOI@@std@@@std@@YA?A_PAEBV?$duration@_JU?$ratio@$00$0DOI@@std@@@chrono@0@@Z$rtcName$1
	DD	028H
	DD	08H
	DQ	FLAT:??$_To_absolute_time@_JU?$ratio@$00$0DOI@@std@@@std@@YA?A_PAEBV?$duration@_JU?$ratio@$00$0DOI@@std@@@chrono@0@@Z$rtcName$0
	ORG $+192
??$_To_absolute_time@_JU?$ratio@$00$0DOI@@std@@@std@@YA?A_PAEBV?$duration@_JU?$ratio@$00$0DOI@@std@@@chrono@0@@Z$rtcFrameData DD 04H ; std::_To_absolute_time<__int64,std::ratio<1,1000> >
	DD	00H
	DQ	FLAT:??$_To_absolute_time@_JU?$ratio@$00$0DOI@@std@@@std@@YA?A_PAEBV?$duration@_JU?$ratio@$00$0DOI@@std@@@chrono@0@@Z$rtcVarDesc
CONST	ENDS
;	COMDAT xdata
xdata	SEGMENT
$unwind$??Bsentry@?$basic_ostream@DU?$char_traits@D@std@@@std@@QEBA_NXZ DD 010601H
	DD	07006H
xdata	ENDS
;	COMDAT xdata
xdata	SEGMENT
$unwind$??1sentry@?$basic_ostream@DU?$char_traits@D@std@@@std@@QEAA@XZ DD 020a01H
	DD	07006520aH
xdata	ENDS
;	COMDAT voltbl
voltbl	SEGMENT
_volmd	DB	00H
	DB	05H
voltbl	ENDS
;	COMDAT xdata
xdata	SEGMENT
$unwind$?dtor$0@?0???0sentry@?$basic_ostream@DU?$char_traits@D@std@@@std@@QEAA@AEAV12@@Z@4HA DD 031001H
	DD	0700c4210H
	DD	0500bH
xdata	ENDS
;	COMDAT xdata
xdata	SEGMENT
$ip2state$??0sentry@?$basic_ostream@DU?$char_traits@D@std@@@std@@QEAA@AEAV12@@Z DB 06H
	DB	00H
	DB	00H
	DB	'>'
	DB	02H
	DB	0a5H, 02H
	DB	00H
xdata	ENDS
;	COMDAT xdata
xdata	SEGMENT
$stateUnwindMap$??0sentry@?$basic_ostream@DU?$char_traits@D@std@@@std@@QEAA@AEAV12@@Z DB 02H
	DB	0eH
	DD	imagerel ?dtor$0@?0???0sentry@?$basic_ostream@DU?$char_traits@D@std@@@std@@QEAA@AEAV12@@Z@4HA
xdata	ENDS
;	COMDAT xdata
xdata	SEGMENT
$cppxdata$??0sentry@?$basic_ostream@DU?$char_traits@D@std@@@std@@QEAA@AEAV12@@Z DB 028H
	DD	imagerel $stateUnwindMap$??0sentry@?$basic_ostream@DU?$char_traits@D@std@@@std@@QEAA@AEAV12@@Z
	DD	imagerel $ip2state$??0sentry@?$basic_ostream@DU?$char_traits@D@std@@@std@@QEAA@AEAV12@@Z
xdata	ENDS
;	COMDAT xdata
xdata	SEGMENT
$unwind$??0sentry@?$basic_ostream@DU?$char_traits@D@std@@@std@@QEAA@AEAV12@@Z DD 020f11H
	DD	0700b520fH
	DD	imagerel __CxxFrameHandler4
	DD	imagerel $cppxdata$??0sentry@?$basic_ostream@DU?$char_traits@D@std@@@std@@QEAA@AEAV12@@Z
xdata	ENDS
;	COMDAT xdata
xdata	SEGMENT
$ip2state$??1_Sentry_base@?$basic_ostream@DU?$char_traits@D@std@@@std@@QEAA@XZ DB 02H
	DB	00H
	DB	00H
xdata	ENDS
;	COMDAT xdata
xdata	SEGMENT
$cppxdata$??1_Sentry_base@?$basic_ostream@DU?$char_traits@D@std@@@std@@QEAA@XZ DB 060H
	DD	imagerel $ip2state$??1_Sentry_base@?$basic_ostream@DU?$char_traits@D@std@@@std@@QEAA@XZ
xdata	ENDS
;	COMDAT xdata
xdata	SEGMENT
$unwind$??1_Sentry_base@?$basic_ostream@DU?$char_traits@D@std@@@std@@QEAA@XZ DD 020a19H
	DD	07006520aH
	DD	imagerel __CxxFrameHandler4
	DD	imagerel $cppxdata$??1_Sentry_base@?$basic_ostream@DU?$char_traits@D@std@@@std@@QEAA@XZ
xdata	ENDS
;	COMDAT xdata
xdata	SEGMENT
$unwind$??0_Sentry_base@?$basic_ostream@DU?$char_traits@D@std@@@std@@QEAA@AEAV12@@Z DD 020f01H
	DD	0700b520fH
xdata	ENDS
;	COMDAT xdata
xdata	SEGMENT
$unwind$??$sleep_for@_JU?$ratio@$00$0DOI@@std@@@this_thread@std@@YAXAEBV?$duration@_JU?$ratio@$00$0DOI@@std@@@chrono@1@@Z DD 020a01H
	DD	07006520aH
xdata	ENDS
;	COMDAT xdata
xdata	SEGMENT
$unwind$??$?0H$0A@@?$duration@_JU?$ratio@$00$0DOI@@std@@@chrono@std@@QEAA@AEBH@Z DD 010b01H
	DD	0700bH
xdata	ENDS
;	COMDAT xdata
xdata	SEGMENT
$unwind$??$swap@PEAVCharacter@@$0A@@std@@YAXAEAPEAVCharacter@@0@Z DD 020f01H
	DD	0700b120fH
xdata	ENDS
;	COMDAT xdata
xdata	SEGMENT
$unwind$??$endl@DU?$char_traits@D@std@@@std@@YAAEAV?$basic_ostream@DU?$char_traits@D@std@@@0@AEAV10@@Z DD 020a01H
	DD	07006520aH
xdata	ENDS
;	COMDAT voltbl
voltbl	SEGMENT
_volmd	DB	00H
	DB	05H
voltbl	ENDS
;	COMDAT voltbl
voltbl	SEGMENT
_volmd	DB	00H
	DB	05H
voltbl	ENDS
;	COMDAT xdata
xdata	SEGMENT
$unwind$?catch$1@?0???$?6U?$char_traits@D@std@@@std@@YAAEAV?$basic_ostream@DU?$char_traits@D@std@@@0@AEAV10@PEBD@Z@4HA DD 031001H
	DD	0700c4210H
	DD	0500bH
xdata	ENDS
;	COMDAT xdata
xdata	SEGMENT
$unwind$?dtor$0@?0???$?6U?$char_traits@D@std@@@std@@YAAEAV?$basic_ostream@DU?$char_traits@D@std@@@0@AEAV10@PEBD@Z@4HA DD 031001H
	DD	0700c4210H
	DD	0500bH
xdata	ENDS
;	COMDAT xdata
xdata	SEGMENT
$ip2state$??$?6U?$char_traits@D@std@@@std@@YAAEAV?$basic_ostream@DU?$char_traits@D@std@@@0@AEAV10@PEBD@Z DB 0aH
	DB	00H
	DB	00H
	DB	0d5H, 03H
	DB	02H
	DB	'B'
	DB	04H
	DB	'M', 0aH
	DB	02H
	DB	092H
	DB	00H
xdata	ENDS
;	COMDAT xdata
xdata	SEGMENT
$handlerMap$??$?6U?$char_traits@D@std@@@std@@YAAEAV?$basic_ostream@DU?$char_traits@D@std@@@0@AEAV10@PEBD@Z DB 02H
	DB	01H
	DB	080H
	DD	imagerel ?catch$1@?0???$?6U?$char_traits@D@std@@@std@@YAAEAV?$basic_ostream@DU?$char_traits@D@std@@@0@AEAV10@PEBD@Z@4HA
xdata	ENDS
;	COMDAT xdata
xdata	SEGMENT
$tryMap$??$?6U?$char_traits@D@std@@@std@@YAAEAV?$basic_ostream@DU?$char_traits@D@std@@@0@AEAV10@PEBD@Z DB 02H
	DB	02H
	DB	02H
	DB	04H
	DD	imagerel $handlerMap$??$?6U?$char_traits@D@std@@@std@@YAAEAV?$basic_ostream@DU?$char_traits@D@std@@@0@AEAV10@PEBD@Z
xdata	ENDS
;	COMDAT xdata
xdata	SEGMENT
$stateUnwindMap$??$?6U?$char_traits@D@std@@@std@@YAAEAV?$basic_ostream@DU?$char_traits@D@std@@@0@AEAV10@PEBD@Z DB 06H
	DB	0eH
	DD	imagerel ?dtor$0@?0???$?6U?$char_traits@D@std@@@std@@YAAEAV?$basic_ostream@DU?$char_traits@D@std@@@0@AEAV10@PEBD@Z@4HA
	DB	028H
	DB	030H
xdata	ENDS
;	COMDAT xdata
xdata	SEGMENT
$cppxdata$??$?6U?$char_traits@D@std@@@std@@YAAEAV?$basic_ostream@DU?$char_traits@D@std@@@0@AEAV10@PEBD@Z DB 038H
	DD	imagerel $stateUnwindMap$??$?6U?$char_traits@D@std@@@std@@YAAEAV?$basic_ostream@DU?$char_traits@D@std@@@0@AEAV10@PEBD@Z
	DD	imagerel $tryMap$??$?6U?$char_traits@D@std@@@std@@YAAEAV?$basic_ostream@DU?$char_traits@D@std@@@0@AEAV10@PEBD@Z
	DD	imagerel $ip2state$??$?6U?$char_traits@D@std@@@std@@YAAEAV?$basic_ostream@DU?$char_traits@D@std@@@0@AEAV10@PEBD@Z
xdata	ENDS
;	COMDAT xdata
xdata	SEGMENT
$unwind$??$?6U?$char_traits@D@std@@@std@@YAAEAV?$basic_ostream@DU?$char_traits@D@std@@@0@AEAV10@PEBD@Z DD 032b19H
	DD	01a0112H
	DD	0700bH
	DD	imagerel __CxxFrameHandler4
	DD	imagerel $cppxdata$??$?6U?$char_traits@D@std@@@std@@YAAEAV?$basic_ostream@DU?$char_traits@D@std@@@0@AEAV10@PEBD@Z
xdata	ENDS
;	COMDAT CONST
CONST	SEGMENT
??$?6U?$char_traits@D@std@@@std@@YAAEAV?$basic_ostream@DU?$char_traits@D@std@@@0@AEAV10@PEBD@Z$rtcName$0 DB 05fH ; std::operator<<<std::char_traits<char> >
	DB	04fH
	DB	06bH
	DB	00H
	ORG $+12
??$?6U?$char_traits@D@std@@@std@@YAAEAV?$basic_ostream@DU?$char_traits@D@std@@@0@AEAV10@PEBD@Z$rtcVarDesc DD 048H ; std::operator<<<std::char_traits<char> >
	DD	010H
	DQ	FLAT:??$?6U?$char_traits@D@std@@@std@@YAAEAV?$basic_ostream@DU?$char_traits@D@std@@@0@AEAV10@PEBD@Z$rtcName$0
	ORG $+48
??$?6U?$char_traits@D@std@@@std@@YAAEAV?$basic_ostream@DU?$char_traits@D@std@@@0@AEAV10@PEBD@Z$rtcFrameData DD 01H ; std::operator<<<std::char_traits<char> >
	DD	00H
	DQ	FLAT:??$?6U?$char_traits@D@std@@@std@@YAAEAV?$basic_ostream@DU?$char_traits@D@std@@@0@AEAV10@PEBD@Z$rtcVarDesc
CONST	ENDS
voltbl	SEGMENT
_volmd	DD	0ffffffffH
	DDSymXIndex: 	FLAT:main$dtor$1
	DD	00H
	DD	05H
_volmd	DD	0ffffffffH
	DDSymXIndex: 	FLAT:main$dtor$0
	DD	00H
	DD	05H
voltbl	ENDS
xdata	SEGMENT
$unwind$main DD	031a11H
	DD	0260109H
	DD	07002H
	DD	imagerel __CxxFrameHandler4
	DD	imagerel $cppxdata$main
$cppxdata$main DB 028H
	DD	imagerel $stateUnwindMap$main
	DD	imagerel $ip2state$main
$stateUnwindMap$main DB 04H
	DB	0eH
	DD	imagerel main$dtor$0
	DB	02eH
	DD	imagerel main$dtor$1
$ip2state$main DB 0aH
	DB	00H
	DB	00H
	DB	'Z'
	DB	02H
	DB	'&'
	DB	04H
	DB	'Q', 0cH
	DB	02H
	DB	018H
	DB	00H
$unwind$main$dtor$0 DD 031001H
	DD	0700c4210H
	DD	0500bH
$unwind$main$dtor$1 DD 031001H
	DD	0700c4210H
	DD	0500bH
xdata	ENDS
CONST	SEGMENT
	ORG $+2
main$rtcName$0 DB 068H
	DB	065H
	DB	072H
	DB	06fH
	DB	031H
	DB	00H
	ORG $+2
main$rtcName$1 DB 068H
	DB	065H
	DB	072H
	DB	06fH
	DB	032H
	DB	00H
	ORG $+2
main$rtcName$2 DB 061H
	DB	074H
	DB	074H
	DB	061H
	DB	063H
	DB	06bH
	DB	065H
	DB	072H
	DB	00H
	ORG $+7
main$rtcName$3 DB 064H
	DB	065H
	DB	066H
	DB	065H
	DB	06eH
	DB	064H
	DB	065H
	DB	072H
	DB	00H
	ORG $+7
main$rtcVarDesc DD 0a8H
	DD	08H
	DQ	FLAT:main$rtcName$3
	DD	088H
	DD	08H
	DQ	FLAT:main$rtcName$2
	DD	058H
	DD	018H
	DQ	FLAT:main$rtcName$1
	DD	028H
	DD	018H
	DQ	FLAT:main$rtcName$0
	ORG $+192
main$rtcFrameData DD 04H
	DD	00H
	DQ	FLAT:main$rtcVarDesc
CONST	ENDS
;	COMDAT xdata
xdata	SEGMENT
$unwind$?count@?$duration@NU?$ratio@$00$0DLJKMKAA@@std@@@chrono@std@@QEBANXZ DD 020a01H
	DD	07006120aH
xdata	ENDS
;	COMDAT xdata
xdata	SEGMENT
$unwind$?count@?$duration@_JU?$ratio@$00$0DOI@@std@@@chrono@std@@QEBA_JXZ DD 010601H
	DD	07006H
xdata	ENDS
;	COMDAT xdata
xdata	SEGMENT
$unwind$??$?0_JU?$ratio@$00$00@std@@$0A@@?$duration@_JU?$ratio@$00$0DLJKMKAA@@std@@@chrono@std@@QEAA@AEBV?$duration@_JU?$ratio@$00$00@std@@@12@@Z DD 020f01H
	DD	0700b520fH
xdata	ENDS
;	COMDAT xdata
xdata	SEGMENT
$unwind$??$duration_cast@V?$duration@_JU?$ratio@$00$00@std@@@chrono@std@@_JU?$ratio@$00$0DLJKMKAA@@3@$0A@@chrono@std@@YA?AV?$duration@_JU?$ratio@$00$00@std@@@01@AEBV?$duration@_JU?$ratio@$00$0DLJKMKAA@@std@@@01@@Z DD 020f01H
	DD	0700b520fH
xdata	ENDS
;	COMDAT xdata
xdata	SEGMENT
$unwind$?count@?$duration@NU?$ratio@$00$00@std@@@chrono@std@@QEBANXZ DD 020a01H
	DD	07006120aH
xdata	ENDS
;	COMDAT xdata
xdata	SEGMENT
$unwind$??$?0_J$0A@@?$duration@_JU?$ratio@$00$0DLJKMKAA@@std@@@chrono@std@@QEAA@AEB_J@Z DD 010b01H
	DD	0700bH
xdata	ENDS
;	COMDAT xdata
xdata	SEGMENT
$unwind$??Y?$time_point@Usteady_clock@chrono@std@@V?$duration@_JU?$ratio@$00$0DLJKMKAA@@std@@@23@@chrono@std@@QEAAAEAV012@AEBV?$duration@_JU?$ratio@$00$0DLJKMKAA@@std@@@12@@Z DD 020f01H
	DD	0700b320fH
xdata	ENDS
;	COMDAT xdata
xdata	SEGMENT
$unwind$?time_since_epoch@?$time_point@Usteady_clock@chrono@std@@V?$duration@_JU?$ratio@$00$0DLJKMKAA@@std@@@23@@chrono@std@@QEBA?AV?$duration@_JU?$ratio@$00$0DLJKMKAA@@std@@@23@XZ DD 010b01H
	DD	0700bH
xdata	ENDS
;	COMDAT xdata
xdata	SEGMENT
$unwind$??0?$time_point@Usteady_clock@chrono@std@@V?$duration@_JU?$ratio@$00$0DLJKMKAA@@std@@@23@@chrono@std@@QEAA@AEBV?$duration@_JU?$ratio@$00$0DLJKMKAA@@std@@@12@@Z DD 010b01H
	DD	0700bH
xdata	ENDS
;	COMDAT xdata
xdata	SEGMENT
$unwind$??Z?$duration@_JU?$ratio@$00$0DLJKMKAA@@std@@@chrono@std@@QEAAAEAV012@AEBV012@@Z DD 010b01H
	DD	0700bH
xdata	ENDS
;	COMDAT xdata
xdata	SEGMENT
$unwind$??Y?$duration@_JU?$ratio@$00$0DLJKMKAA@@std@@@chrono@std@@QEAAAEAV012@AEBV012@@Z DD 010b01H
	DD	0700bH
xdata	ENDS
;	COMDAT xdata
xdata	SEGMENT
$unwind$?count@?$duration@_JU?$ratio@$00$0DLJKMKAA@@std@@@chrono@std@@QEBA_JXZ DD 010601H
	DD	07006H
xdata	ENDS
;	COMDAT xdata
xdata	SEGMENT
$unwind$?now@steady_clock@chrono@std@@SA?AV?$time_point@Usteady_clock@chrono@std@@V?$duration@_JU?$ratio@$00$0DLJKMKAA@@std@@@23@@23@XZ DD 030d01H
	DD	014010dH
	DD	07006H
xdata	ENDS
;	COMDAT xdata
xdata	SEGMENT
$unwind$??$?0_J$0A@@?$duration@_JU?$ratio@$00$00@std@@@chrono@std@@QEAA@AEB_J@Z DD 010b01H
	DD	0700bH
xdata	ENDS
;	COMDAT xdata
xdata	SEGMENT
$unwind$?count@?$duration@_JU?$ratio@$00$00@std@@@chrono@std@@QEBA_JXZ DD 010601H
	DD	07006H
xdata	ENDS
;	COMDAT xdata
xdata	SEGMENT
$unwind$??$?0_J$0A@@?$duration@_JU?$ratio@$00$0JIJGIA@@std@@@chrono@std@@QEAA@AEB_J@Z DD 010b01H
	DD	0700bH
xdata	ENDS
;	COMDAT xdata
xdata	SEGMENT
$unwind$?count@?$duration@_JU?$ratio@$00$0JIJGIA@@std@@@chrono@std@@QEBA_JXZ DD 010601H
	DD	07006H
xdata	ENDS
;	COMDAT xdata
xdata	SEGMENT
$unwind$?eof@?$_Narrow_char_traits@DH@std@@SAHXZ DD 010201H
	DD	07002H
xdata	ENDS
;	COMDAT xdata
xdata	SEGMENT
$unwind$?eq_int_type@?$_Narrow_char_traits@DH@std@@SA_NHH@Z DD 020d01H
	DD	07009120dH
xdata	ENDS
;	COMDAT xdata
xdata	SEGMENT
$unwind$?length@?$_Narrow_char_traits@DH@std@@SA_KQEBD@Z DD 020a01H
	DD	07006120aH
xdata	ENDS
;	COMDAT xdata
xdata	SEGMENT
$unwind$??Nstd@@YA_NUstrong_ordering@0@U_Literal_zero@0@@Z DD 020d01H
	DD	07009120dH
xdata	ENDS
;	COMDAT xdata
xdata	SEGMENT
$unwind$??Ostd@@YA_NUstrong_ordering@0@U_Literal_zero@0@@Z DD 020d01H
	DD	07009120dH
xdata	ENDS
;	COMDAT xdata
xdata	SEGMENT
$unwind$??Mstd@@YA_NUstrong_ordering@0@U_Literal_zero@0@@Z DD 020d01H
	DD	07009120dH
xdata	ENDS
;	COMDAT xdata
xdata	SEGMENT
$unwind$??Mstd@@YA_NUpartial_ordering@0@U_Literal_zero@0@@Z DD 020d01H
	DD	07009120dH
xdata	ENDS
;	COMDAT xdata
xdata	SEGMENT
$unwind$?__empty_global_delete@@YAXPEAX_KW4align_val_t@std@@@Z DD 011001H
	DD	07010H
xdata	ENDS
;	COMDAT xdata
xdata	SEGMENT
$unwind$?__empty_global_delete@@YAXPEAXW4align_val_t@std@@@Z DD 010b01H
	DD	0700bH
xdata	ENDS
;	COMDAT xdata
xdata	SEGMENT
$unwind$?__empty_global_delete@@YAXPEAX_K@Z DD 010b01H
	DD	0700bH
xdata	ENDS
;	COMDAT xdata
xdata	SEGMENT
$unwind$?__empty_global_delete@@YAXPEAX@Z DD 010601H
	DD	07006H
xdata	ENDS
; Function compile flags: /Odtp /RTCsu
;	COMDAT ??$?0N$0A@@?$duration@NU?$ratio@$00$0DLJKMKAA@@std@@@chrono@std@@QEAA@AEBN@Z
_TEXT	SEGMENT
this$ = 16
_Val$ = 24
??$?0N$0A@@?$duration@NU?$ratio@$00$0DLJKMKAA@@std@@@chrono@std@@QEAA@AEBN@Z PROC ; std::chrono::duration<double,std::ratio<1,1000000000> >::duration<double,std::ratio<1,1000000000> ><double,0>, COMDAT
; File C:\Program Files\Microsoft Visual Studio\2022\Community\VC\Tools\MSVC\14.38.33130\include\__msvc_chrono.hpp
; Line 98
$LN3:
  00000	48 89 54 24 10	 mov	 QWORD PTR [rsp+16], rdx
  00005	48 89 4c 24 08	 mov	 QWORD PTR [rsp+8], rcx
  0000a	57		 push	 rdi
  0000b	48 8b 44 24 10	 mov	 rax, QWORD PTR this$[rsp]
  00010	48 8b 4c 24 18	 mov	 rcx, QWORD PTR _Val$[rsp]
  00015	f2 0f 10 01	 movsd	 xmm0, QWORD PTR [rcx]
  00019	f2 0f 11 00	 movsd	 QWORD PTR [rax], xmm0
  0001d	48 8b 44 24 10	 mov	 rax, QWORD PTR this$[rsp]
  00022	5f		 pop	 rdi
  00023	c3		 ret	 0
??$?0N$0A@@?$duration@NU?$ratio@$00$0DLJKMKAA@@std@@@chrono@std@@QEAA@AEBN@Z ENDP ; std::chrono::duration<double,std::ratio<1,1000000000> >::duration<double,std::ratio<1,1000000000> ><double,0>
_TEXT	ENDS
; Function compile flags: /Odtp /RTCsu
;	COMDAT ??$duration_cast@V?$duration@NU?$ratio@$00$0DLJKMKAA@@std@@@chrono@std@@_JU?$ratio@$00$0DLJKMKAA@@3@$0A@@chrono@std@@YA?AV?$duration@NU?$ratio@$00$0DLJKMKAA@@std@@@01@AEBV?$duration@_JU?$ratio@$00$0DLJKMKAA@@std@@@01@@Z
_TEXT	SEGMENT
_Num_is_one$ = 32
_Den_is_one$ = 33
$T1 = 40
__$ReturnUdt$ = 64
_Dur$ = 72
??$duration_cast@V?$duration@NU?$ratio@$00$0DLJKMKAA@@std@@@chrono@std@@_JU?$ratio@$00$0DLJKMKAA@@3@$0A@@chrono@std@@YA?AV?$duration@NU?$ratio@$00$0DLJKMKAA@@std@@@01@AEBV?$duration@_JU?$ratio@$00$0DLJKMKAA@@std@@@01@@Z PROC ; std::chrono::duration_cast<std::chrono::duration<double,std::ratio<1,1000000000> >,__int64,std::ratio<1,1000000000>,0>, COMDAT
; File C:\Program Files\Microsoft Visual Studio\2022\Community\VC\Tools\MSVC\14.38.33130\include\__msvc_chrono.hpp
; Line 421
$LN3:
  00000	48 89 54 24 10	 mov	 QWORD PTR [rsp+16], rdx
  00005	48 89 4c 24 08	 mov	 QWORD PTR [rsp+8], rcx
  0000a	57		 push	 rdi
  0000b	48 83 ec 30	 sub	 rsp, 48			; 00000030H
; Line 428
  0000f	c6 44 24 20 01	 mov	 BYTE PTR _Num_is_one$[rsp], 1
; Line 429
  00014	c6 44 24 21 01	 mov	 BYTE PTR _Den_is_one$[rsp], 1
; Line 433
  00019	48 8b 4c 24 48	 mov	 rcx, QWORD PTR _Dur$[rsp]
  0001e	e8 00 00 00 00	 call	 ?count@?$duration@_JU?$ratio@$00$0DLJKMKAA@@std@@@chrono@std@@QEBA_JXZ ; std::chrono::duration<__int64,std::ratio<1,1000000000> >::count
  00023	f2 48 0f 2a c0	 cvtsi2sd xmm0, rax
  00028	f2 0f 11 44 24
	28		 movsd	 QWORD PTR $T1[rsp], xmm0
  0002e	48 8d 54 24 28	 lea	 rdx, QWORD PTR $T1[rsp]
  00033	48 8b 4c 24 40	 mov	 rcx, QWORD PTR __$ReturnUdt$[rsp]
  00038	e8 00 00 00 00	 call	 ??$?0N$0A@@?$duration@NU?$ratio@$00$0DLJKMKAA@@std@@@chrono@std@@QEAA@AEBN@Z ; std::chrono::duration<double,std::ratio<1,1000000000> >::duration<double,std::ratio<1,1000000000> ><double,0>
  0003d	48 8b 44 24 40	 mov	 rax, QWORD PTR __$ReturnUdt$[rsp]
; Line 447
  00042	48 83 c4 30	 add	 rsp, 48			; 00000030H
  00046	5f		 pop	 rdi
  00047	c3		 ret	 0
??$duration_cast@V?$duration@NU?$ratio@$00$0DLJKMKAA@@std@@@chrono@std@@_JU?$ratio@$00$0DLJKMKAA@@3@$0A@@chrono@std@@YA?AV?$duration@NU?$ratio@$00$0DLJKMKAA@@std@@@01@AEBV?$duration@_JU?$ratio@$00$0DLJKMKAA@@std@@@01@@Z ENDP ; std::chrono::duration_cast<std::chrono::duration<double,std::ratio<1,1000000000> >,__int64,std::ratio<1,1000000000>,0>
_TEXT	ENDS
; Function compile flags: /Odtp /RTCsu
;	COMDAT ??$duration_cast@V?$duration@NU?$ratio@$00$0DLJKMKAA@@std@@@chrono@std@@NU?$ratio@$00$00@3@$0A@@chrono@std@@YA?AV?$duration@NU?$ratio@$00$0DLJKMKAA@@std@@@01@AEBV?$duration@NU?$ratio@$00$00@std@@@01@@Z
_TEXT	SEGMENT
_Num_is_one$ = 32
_Den_is_one$ = 33
$T1 = 40
__$ReturnUdt$ = 64
_Dur$ = 72
??$duration_cast@V?$duration@NU?$ratio@$00$0DLJKMKAA@@std@@@chrono@std@@NU?$ratio@$00$00@3@$0A@@chrono@std@@YA?AV?$duration@NU?$ratio@$00$0DLJKMKAA@@std@@@01@AEBV?$duration@NU?$ratio@$00$00@std@@@01@@Z PROC ; std::chrono::duration_cast<std::chrono::duration<double,std::ratio<1,1000000000> >,double,std::ratio<1,1>,0>, COMDAT
; File C:\Program Files\Microsoft Visual Studio\2022\Community\VC\Tools\MSVC\14.38.33130\include\__msvc_chrono.hpp
; Line 421
$LN3:
  00000	48 89 54 24 10	 mov	 QWORD PTR [rsp+16], rdx
  00005	48 89 4c 24 08	 mov	 QWORD PTR [rsp+8], rcx
  0000a	57		 push	 rdi
  0000b	48 83 ec 30	 sub	 rsp, 48			; 00000030H
; Line 428
  0000f	c6 44 24 20 00	 mov	 BYTE PTR _Num_is_one$[rsp], 0
; Line 429
  00014	c6 44 24 21 01	 mov	 BYTE PTR _Den_is_one$[rsp], 1
; Line 435
  00019	48 8b 4c 24 48	 mov	 rcx, QWORD PTR _Dur$[rsp]
  0001e	e8 00 00 00 00	 call	 ?count@?$duration@NU?$ratio@$00$00@std@@@chrono@std@@QEBANXZ ; std::chrono::duration<double,std::ratio<1,1> >::count
  00023	f2 0f 59 05 00
	00 00 00	 mulsd	 xmm0, QWORD PTR __real@41cdcd6500000000
  0002b	f2 0f 11 44 24
	28		 movsd	 QWORD PTR $T1[rsp], xmm0
  00031	48 8d 54 24 28	 lea	 rdx, QWORD PTR $T1[rsp]
  00036	48 8b 4c 24 40	 mov	 rcx, QWORD PTR __$ReturnUdt$[rsp]
  0003b	e8 00 00 00 00	 call	 ??$?0N$0A@@?$duration@NU?$ratio@$00$0DLJKMKAA@@std@@@chrono@std@@QEAA@AEBN@Z ; std::chrono::duration<double,std::ratio<1,1000000000> >::duration<double,std::ratio<1,1000000000> ><double,0>
  00040	48 8b 44 24 40	 mov	 rax, QWORD PTR __$ReturnUdt$[rsp]
; Line 447
  00045	48 83 c4 30	 add	 rsp, 48			; 00000030H
  00049	5f		 pop	 rdi
  0004a	c3		 ret	 0
??$duration_cast@V?$duration@NU?$ratio@$00$0DLJKMKAA@@std@@@chrono@std@@NU?$ratio@$00$00@3@$0A@@chrono@std@@YA?AV?$duration@NU?$ratio@$00$0DLJKMKAA@@std@@@01@AEBV?$duration@NU?$ratio@$00$00@std@@@01@@Z ENDP ; std::chrono::duration_cast<std::chrono::duration<double,std::ratio<1,1000000000> >,double,std::ratio<1,1>,0>
_TEXT	ENDS
; Function compile flags: /Odtp /RTCsu
;	COMDAT ??$duration_cast@V?$duration@_JU?$ratio@$00$0DLJKMKAA@@std@@@chrono@std@@_JU?$ratio@$00$0JIJGIA@@3@$0A@@chrono@std@@YA?AV?$duration@_JU?$ratio@$00$0DLJKMKAA@@std@@@01@AEBV?$duration@_JU?$ratio@$00$0JIJGIA@@std@@@01@@Z
_TEXT	SEGMENT
_Num_is_one$ = 32
_Den_is_one$ = 33
$T1 = 40
__$ReturnUdt$ = 64
_Dur$ = 72
??$duration_cast@V?$duration@_JU?$ratio@$00$0DLJKMKAA@@std@@@chrono@std@@_JU?$ratio@$00$0JIJGIA@@3@$0A@@chrono@std@@YA?AV?$duration@_JU?$ratio@$00$0DLJKMKAA@@std@@@01@AEBV?$duration@_JU?$ratio@$00$0JIJGIA@@std@@@01@@Z PROC ; std::chrono::duration_cast<std::chrono::duration<__int64,std::ratio<1,1000000000> >,__int64,std::ratio<1,10000000>,0>, COMDAT
; File C:\Program Files\Microsoft Visual Studio\2022\Community\VC\Tools\MSVC\14.38.33130\include\__msvc_chrono.hpp
; Line 421
$LN3:
  00000	48 89 54 24 10	 mov	 QWORD PTR [rsp+16], rdx
  00005	48 89 4c 24 08	 mov	 QWORD PTR [rsp+8], rcx
  0000a	57		 push	 rdi
  0000b	48 83 ec 30	 sub	 rsp, 48			; 00000030H
; Line 428
  0000f	c6 44 24 20 00	 mov	 BYTE PTR _Num_is_one$[rsp], 0
; Line 429
  00014	c6 44 24 21 01	 mov	 BYTE PTR _Den_is_one$[rsp], 1
; Line 435
  00019	48 8b 4c 24 48	 mov	 rcx, QWORD PTR _Dur$[rsp]
  0001e	e8 00 00 00 00	 call	 ?count@?$duration@_JU?$ratio@$00$0JIJGIA@@std@@@chrono@std@@QEBA_JXZ ; std::chrono::duration<__int64,std::ratio<1,10000000> >::count
  00023	48 6b c0 64	 imul	 rax, rax, 100		; 00000064H
  00027	48 89 44 24 28	 mov	 QWORD PTR $T1[rsp], rax
  0002c	48 8d 54 24 28	 lea	 rdx, QWORD PTR $T1[rsp]
  00031	48 8b 4c 24 40	 mov	 rcx, QWORD PTR __$ReturnUdt$[rsp]
  00036	e8 00 00 00 00	 call	 ??$?0_J$0A@@?$duration@_JU?$ratio@$00$0DLJKMKAA@@std@@@chrono@std@@QEAA@AEB_J@Z ; std::chrono::duration<__int64,std::ratio<1,1000000000> >::duration<__int64,std::ratio<1,1000000000> ><__int64,0>
  0003b	48 8b 44 24 40	 mov	 rax, QWORD PTR __$ReturnUdt$[rsp]
; Line 447
  00040	48 83 c4 30	 add	 rsp, 48			; 00000030H
  00044	5f		 pop	 rdi
  00045	c3		 ret	 0
??$duration_cast@V?$duration@_JU?$ratio@$00$0DLJKMKAA@@std@@@chrono@std@@_JU?$ratio@$00$0JIJGIA@@3@$0A@@chrono@std@@YA?AV?$duration@_JU?$ratio@$00$0DLJKMKAA@@std@@@01@AEBV?$duration@_JU?$ratio@$00$0JIJGIA@@std@@@01@@Z ENDP ; std::chrono::duration_cast<std::chrono::duration<__int64,std::ratio<1,1000000000> >,__int64,std::ratio<1,10000000>,0>
_TEXT	ENDS
; Function compile flags: /Odtp /RTCsu
;	COMDAT ??$duration_cast@V?$duration@_JU?$ratio@$00$0DLJKMKAA@@std@@@chrono@std@@_JU?$ratio@$00$00@3@$0A@@chrono@std@@YA?AV?$duration@_JU?$ratio@$00$0DLJKMKAA@@std@@@01@AEBV?$duration@_JU?$ratio@$00$00@std@@@01@@Z
_TEXT	SEGMENT
_Num_is_one$ = 32
_Den_is_one$ = 33
$T1 = 40
__$ReturnUdt$ = 64
_Dur$ = 72
??$duration_cast@V?$duration@_JU?$ratio@$00$0DLJKMKAA@@std@@@chrono@std@@_JU?$ratio@$00$00@3@$0A@@chrono@std@@YA?AV?$duration@_JU?$ratio@$00$0DLJKMKAA@@std@@@01@AEBV?$duration@_JU?$ratio@$00$00@std@@@01@@Z PROC ; std::chrono::duration_cast<std::chrono::duration<__int64,std::ratio<1,1000000000> >,__int64,std::ratio<1,1>,0>, COMDAT
; File C:\Program Files\Microsoft Visual Studio\2022\Community\VC\Tools\MSVC\14.38.33130\include\__msvc_chrono.hpp
; Line 421
$LN3:
  00000	48 89 54 24 10	 mov	 QWORD PTR [rsp+16], rdx
  00005	48 89 4c 24 08	 mov	 QWORD PTR [rsp+8], rcx
  0000a	57		 push	 rdi
  0000b	48 83 ec 30	 sub	 rsp, 48			; 00000030H
; Line 428
  0000f	c6 44 24 20 00	 mov	 BYTE PTR _Num_is_one$[rsp], 0
; Line 429
  00014	c6 44 24 21 01	 mov	 BYTE PTR _Den_is_one$[rsp], 1
; Line 435
  00019	48 8b 4c 24 48	 mov	 rcx, QWORD PTR _Dur$[rsp]
  0001e	e8 00 00 00 00	 call	 ?count@?$duration@_JU?$ratio@$00$00@std@@@chrono@std@@QEBA_JXZ ; std::chrono::duration<__int64,std::ratio<1,1> >::count
  00023	48 69 c0 00 ca
	9a 3b		 imul	 rax, rax, 1000000000	; 3b9aca00H
  0002a	48 89 44 24 28	 mov	 QWORD PTR $T1[rsp], rax
  0002f	48 8d 54 24 28	 lea	 rdx, QWORD PTR $T1[rsp]
  00034	48 8b 4c 24 40	 mov	 rcx, QWORD PTR __$ReturnUdt$[rsp]
  00039	e8 00 00 00 00	 call	 ??$?0_J$0A@@?$duration@_JU?$ratio@$00$0DLJKMKAA@@std@@@chrono@std@@QEAA@AEB_J@Z ; std::chrono::duration<__int64,std::ratio<1,1000000000> >::duration<__int64,std::ratio<1,1000000000> ><__int64,0>
  0003e	48 8b 44 24 40	 mov	 rax, QWORD PTR __$ReturnUdt$[rsp]
; Line 447
  00043	48 83 c4 30	 add	 rsp, 48			; 00000030H
  00047	5f		 pop	 rdi
  00048	c3		 ret	 0
??$duration_cast@V?$duration@_JU?$ratio@$00$0DLJKMKAA@@std@@@chrono@std@@_JU?$ratio@$00$00@3@$0A@@chrono@std@@YA?AV?$duration@_JU?$ratio@$00$0DLJKMKAA@@std@@@01@AEBV?$duration@_JU?$ratio@$00$00@std@@@01@@Z ENDP ; std::chrono::duration_cast<std::chrono::duration<__int64,std::ratio<1,1000000000> >,__int64,std::ratio<1,1>,0>
_TEXT	ENDS
; Function compile flags: /Odtp /RTCsu
;	COMDAT ??$duration_cast@V?$duration@_JU?$ratio@$00$0DLJKMKAA@@std@@@chrono@std@@_JU?$ratio@$00$0DLJKMKAA@@3@$0A@@chrono@std@@YA?AV?$duration@_JU?$ratio@$00$0DLJKMKAA@@std@@@01@AEBV201@@Z
_TEXT	SEGMENT
_Num_is_one$ = 32
_Den_is_one$ = 33
$T1 = 40
__$ReturnUdt$ = 64
_Dur$ = 72
??$duration_cast@V?$duration@_JU?$ratio@$00$0DLJKMKAA@@std@@@chrono@std@@_JU?$ratio@$00$0DLJKMKAA@@3@$0A@@chrono@std@@YA?AV?$duration@_JU?$ratio@$00$0DLJKMKAA@@std@@@01@AEBV201@@Z PROC ; std::chrono::duration_cast<std::chrono::duration<__int64,std::ratio<1,1000000000> >,__int64,std::ratio<1,1000000000>,0>, COMDAT
; File C:\Program Files\Microsoft Visual Studio\2022\Community\VC\Tools\MSVC\14.38.33130\include\__msvc_chrono.hpp
; Line 421
$LN3:
  00000	48 89 54 24 10	 mov	 QWORD PTR [rsp+16], rdx
  00005	48 89 4c 24 08	 mov	 QWORD PTR [rsp+8], rcx
  0000a	57		 push	 rdi
  0000b	48 83 ec 30	 sub	 rsp, 48			; 00000030H
; Line 428
  0000f	c6 44 24 20 01	 mov	 BYTE PTR _Num_is_one$[rsp], 1
; Line 429
  00014	c6 44 24 21 01	 mov	 BYTE PTR _Den_is_one$[rsp], 1
; Line 433
  00019	48 8b 4c 24 48	 mov	 rcx, QWORD PTR _Dur$[rsp]
  0001e	e8 00 00 00 00	 call	 ?count@?$duration@_JU?$ratio@$00$0DLJKMKAA@@std@@@chrono@std@@QEBA_JXZ ; std::chrono::duration<__int64,std::ratio<1,1000000000> >::count
  00023	48 89 44 24 28	 mov	 QWORD PTR $T1[rsp], rax
  00028	48 8d 54 24 28	 lea	 rdx, QWORD PTR $T1[rsp]
  0002d	48 8b 4c 24 40	 mov	 rcx, QWORD PTR __$ReturnUdt$[rsp]
  00032	e8 00 00 00 00	 call	 ??$?0_J$0A@@?$duration@_JU?$ratio@$00$0DLJKMKAA@@std@@@chrono@std@@QEAA@AEB_J@Z ; std::chrono::duration<__int64,std::ratio<1,1000000000> >::duration<__int64,std::ratio<1,1000000000> ><__int64,0>
  00037	48 8b 44 24 40	 mov	 rax, QWORD PTR __$ReturnUdt$[rsp]
; Line 447
  0003c	48 83 c4 30	 add	 rsp, 48			; 00000030H
  00040	5f		 pop	 rdi
  00041	c3		 ret	 0
??$duration_cast@V?$duration@_JU?$ratio@$00$0DLJKMKAA@@std@@@chrono@std@@_JU?$ratio@$00$0DLJKMKAA@@3@$0A@@chrono@std@@YA?AV?$duration@_JU?$ratio@$00$0DLJKMKAA@@std@@@01@AEBV201@@Z ENDP ; std::chrono::duration_cast<std::chrono::duration<__int64,std::ratio<1,1000000000> >,__int64,std::ratio<1,1000000000>,0>
_TEXT	ENDS
; Function compile flags: /Odtp /RTCsu
;	COMDAT ??$?0_JU?$ratio@$00$0DLJKMKAA@@std@@$0A@@?$duration@NU?$ratio@$00$0DLJKMKAA@@std@@@chrono@std@@QEAA@AEBV?$duration@_JU?$ratio@$00$0DLJKMKAA@@std@@@12@@Z
_TEXT	SEGMENT
$T1 = 32
this$ = 64
_Dur$ = 72
??$?0_JU?$ratio@$00$0DLJKMKAA@@std@@$0A@@?$duration@NU?$ratio@$00$0DLJKMKAA@@std@@@chrono@std@@QEAA@AEBV?$duration@_JU?$ratio@$00$0DLJKMKAA@@std@@@12@@Z PROC ; std::chrono::duration<double,std::ratio<1,1000000000> >::duration<double,std::ratio<1,1000000000> ><__int64,std::ratio<1,1000000000>,0>, COMDAT
; File C:\Program Files\Microsoft Visual Studio\2022\Community\VC\Tools\MSVC\14.38.33130\include\__msvc_chrono.hpp
; Line 106
$LN3:
  00000	48 89 54 24 10	 mov	 QWORD PTR [rsp+16], rdx
  00005	48 89 4c 24 08	 mov	 QWORD PTR [rsp+8], rcx
  0000a	57		 push	 rdi
  0000b	48 83 ec 30	 sub	 rsp, 48			; 00000030H
  0000f	48 8b 54 24 48	 mov	 rdx, QWORD PTR _Dur$[rsp]
  00014	48 8d 4c 24 20	 lea	 rcx, QWORD PTR $T1[rsp]
  00019	e8 00 00 00 00	 call	 ??$duration_cast@V?$duration@NU?$ratio@$00$0DLJKMKAA@@std@@@chrono@std@@_JU?$ratio@$00$0DLJKMKAA@@3@$0A@@chrono@std@@YA?AV?$duration@NU?$ratio@$00$0DLJKMKAA@@std@@@01@AEBV?$duration@_JU?$ratio@$00$0DLJKMKAA@@std@@@01@@Z ; std::chrono::duration_cast<std::chrono::duration<double,std::ratio<1,1000000000> >,__int64,std::ratio<1,1000000000>,0>
  0001e	48 8b c8	 mov	 rcx, rax
  00021	e8 00 00 00 00	 call	 ?count@?$duration@NU?$ratio@$00$0DLJKMKAA@@std@@@chrono@std@@QEBANXZ ; std::chrono::duration<double,std::ratio<1,1000000000> >::count
  00026	48 8b 44 24 40	 mov	 rax, QWORD PTR this$[rsp]
  0002b	f2 0f 11 00	 movsd	 QWORD PTR [rax], xmm0
  0002f	48 8b 44 24 40	 mov	 rax, QWORD PTR this$[rsp]
  00034	48 83 c4 30	 add	 rsp, 48			; 00000030H
  00038	5f		 pop	 rdi
  00039	c3		 ret	 0
??$?0_JU?$ratio@$00$0DLJKMKAA@@std@@$0A@@?$duration@NU?$ratio@$00$0DLJKMKAA@@std@@@chrono@std@@QEAA@AEBV?$duration@_JU?$ratio@$00$0DLJKMKAA@@std@@@12@@Z ENDP ; std::chrono::duration<double,std::ratio<1,1000000000> >::duration<double,std::ratio<1,1000000000> ><__int64,std::ratio<1,1000000000>,0>
_TEXT	ENDS
; Function compile flags: /Odtp /RTCsu
;	COMDAT ??$?0NU?$ratio@$00$00@std@@$0A@@?$duration@NU?$ratio@$00$0DLJKMKAA@@std@@@chrono@std@@QEAA@AEBV?$duration@NU?$ratio@$00$00@std@@@12@@Z
_TEXT	SEGMENT
$T1 = 32
this$ = 64
_Dur$ = 72
??$?0NU?$ratio@$00$00@std@@$0A@@?$duration@NU?$ratio@$00$0DLJKMKAA@@std@@@chrono@std@@QEAA@AEBV?$duration@NU?$ratio@$00$00@std@@@12@@Z PROC ; std::chrono::duration<double,std::ratio<1,1000000000> >::duration<double,std::ratio<1,1000000000> ><double,std::ratio<1,1>,0>, COMDAT
; File C:\Program Files\Microsoft Visual Studio\2022\Community\VC\Tools\MSVC\14.38.33130\include\__msvc_chrono.hpp
; Line 106
$LN3:
  00000	48 89 54 24 10	 mov	 QWORD PTR [rsp+16], rdx
  00005	48 89 4c 24 08	 mov	 QWORD PTR [rsp+8], rcx
  0000a	57		 push	 rdi
  0000b	48 83 ec 30	 sub	 rsp, 48			; 00000030H
  0000f	48 8b 54 24 48	 mov	 rdx, QWORD PTR _Dur$[rsp]
  00014	48 8d 4c 24 20	 lea	 rcx, QWORD PTR $T1[rsp]
  00019	e8 00 00 00 00	 call	 ??$duration_cast@V?$duration@NU?$ratio@$00$0DLJKMKAA@@std@@@chrono@std@@NU?$ratio@$00$00@3@$0A@@chrono@std@@YA?AV?$duration@NU?$ratio@$00$0DLJKMKAA@@std@@@01@AEBV?$duration@NU?$ratio@$00$00@std@@@01@@Z ; std::chrono::duration_cast<std::chrono::duration<double,std::ratio<1,1000000000> >,double,std::ratio<1,1>,0>
  0001e	48 8b c8	 mov	 rcx, rax
  00021	e8 00 00 00 00	 call	 ?count@?$duration@NU?$ratio@$00$0DLJKMKAA@@std@@@chrono@std@@QEBANXZ ; std::chrono::duration<double,std::ratio<1,1000000000> >::count
  00026	48 8b 44 24 40	 mov	 rax, QWORD PTR this$[rsp]
  0002b	f2 0f 11 00	 movsd	 QWORD PTR [rax], xmm0
  0002f	48 8b 44 24 40	 mov	 rax, QWORD PTR this$[rsp]
  00034	48 83 c4 30	 add	 rsp, 48			; 00000030H
  00038	5f		 pop	 rdi
  00039	c3		 ret	 0
??$?0NU?$ratio@$00$00@std@@$0A@@?$duration@NU?$ratio@$00$0DLJKMKAA@@std@@@chrono@std@@QEAA@AEBV?$duration@NU?$ratio@$00$00@std@@@12@@Z ENDP ; std::chrono::duration<double,std::ratio<1,1000000000> >::duration<double,std::ratio<1,1000000000> ><double,std::ratio<1,1>,0>
_TEXT	ENDS
; Function compile flags: /Odtp /RTCsu
;	COMDAT ??$?__MNU?$ratio@$00$00@std@@_JU?$ratio@$00$0DLJKMKAA@@1@@chrono@std@@YA?A_PAEBV?$duration@NU?$ratio@$00$00@std@@@01@AEBV?$duration@_JU?$ratio@$00$0DLJKMKAA@@std@@@01@@Z
_TEXT	SEGMENT
$T1 = 32
$T2 = 40
$T3 = 48
$T4 = 56
$T5 = 64
$T6 = 65
$T7 = 72
$T8 = 80
$T9 = 81
$T10 = 88
$T11 = 96
$T12 = 97
$T13 = 98
tv79 = 104
tv77 = 112
_Left$ = 144
_Right$ = 152
??$?__MNU?$ratio@$00$00@std@@_JU?$ratio@$00$0DLJKMKAA@@1@@chrono@std@@YA?A_PAEBV?$duration@NU?$ratio@$00$00@std@@@01@AEBV?$duration@_JU?$ratio@$00$0DLJKMKAA@@std@@@01@@Z PROC ; std::chrono::operator<=><double,std::ratio<1,1>,__int64,std::ratio<1,1000000000> >, COMDAT
; File C:\Program Files\Microsoft Visual Studio\2022\Community\VC\Tools\MSVC\14.38.33130\include\__msvc_chrono.hpp
; Line 413
$LN9:
  00000	48 89 54 24 10	 mov	 QWORD PTR [rsp+16], rdx
  00005	48 89 4c 24 08	 mov	 QWORD PTR [rsp+8], rcx
  0000a	57		 push	 rdi
  0000b	48 81 ec 80 00
	00 00		 sub	 rsp, 128		; 00000080H
; Line 415
  00012	48 8b 94 24 90
	00 00 00	 mov	 rdx, QWORD PTR _Left$[rsp]
  0001a	48 8d 4c 24 28	 lea	 rcx, QWORD PTR $T2[rsp]
  0001f	e8 00 00 00 00	 call	 ??$?0NU?$ratio@$00$00@std@@$0A@@?$duration@NU?$ratio@$00$0DLJKMKAA@@std@@@chrono@std@@QEAA@AEBV?$duration@NU?$ratio@$00$00@std@@@12@@Z ; std::chrono::duration<double,std::ratio<1,1000000000> >::duration<double,std::ratio<1,1000000000> ><double,std::ratio<1,1>,0>
  00024	48 8b c8	 mov	 rcx, rax
  00027	e8 00 00 00 00	 call	 ?count@?$duration@NU?$ratio@$00$0DLJKMKAA@@std@@@chrono@std@@QEBANXZ ; std::chrono::duration<double,std::ratio<1,1000000000> >::count
  0002c	f2 0f 11 44 24
	20		 movsd	 QWORD PTR $T1[rsp], xmm0
  00032	48 8b 94 24 98
	00 00 00	 mov	 rdx, QWORD PTR _Right$[rsp]
  0003a	48 8d 4c 24 38	 lea	 rcx, QWORD PTR $T4[rsp]
  0003f	e8 00 00 00 00	 call	 ??$?0_JU?$ratio@$00$0DLJKMKAA@@std@@$0A@@?$duration@NU?$ratio@$00$0DLJKMKAA@@std@@@chrono@std@@QEAA@AEBV?$duration@_JU?$ratio@$00$0DLJKMKAA@@std@@@12@@Z ; std::chrono::duration<double,std::ratio<1,1000000000> >::duration<double,std::ratio<1,1000000000> ><__int64,std::ratio<1,1000000000>,0>
  00044	48 8b c8	 mov	 rcx, rax
  00047	e8 00 00 00 00	 call	 ?count@?$duration@NU?$ratio@$00$0DLJKMKAA@@std@@@chrono@std@@QEBANXZ ; std::chrono::duration<double,std::ratio<1,1000000000> >::count
  0004c	f2 0f 11 44 24
	30		 movsd	 QWORD PTR $T3[rsp], xmm0
  00052	f2 0f 10 44 24
	30		 movsd	 xmm0, QWORD PTR $T3[rsp]
  00058	66 0f 2f 44 24
	20		 comisd	 xmm0, QWORD PTR $T1[rsp]
  0005e	76 19		 jbe	 SHORT $LN7@operator
  00060	0f b6 05 00 00
	00 00		 movzx	 eax, BYTE PTR ?less@partial_ordering@std@@2U12@B ; std::partial_ordering::less
  00067	88 44 24 40	 mov	 BYTE PTR $T5[rsp], al
  0006b	0f b6 44 24 40	 movzx	 eax, BYTE PTR $T5[rsp]
  00070	88 44 24 62	 mov	 BYTE PTR $T13[rsp], al
  00074	e9 a0 00 00 00	 jmp	 $LN8@operator
$LN7@operator:
  00079	f2 0f 10 44 24
	20		 movsd	 xmm0, QWORD PTR $T1[rsp]
  0007f	66 0f 2f 44 24
	30		 comisd	 xmm0, QWORD PTR $T3[rsp]
  00085	76 17		 jbe	 SHORT $LN5@operator
  00087	0f b6 05 00 00
	00 00		 movzx	 eax, BYTE PTR ?greater@partial_ordering@std@@2U12@B ; std::partial_ordering::greater
  0008e	88 44 24 50	 mov	 BYTE PTR $T8[rsp], al
  00092	48 8d 44 24 50	 lea	 rax, QWORD PTR $T8[rsp]
  00097	48 89 44 24 68	 mov	 QWORD PTR tv79[rsp], rax
  0009c	eb 5c		 jmp	 SHORT $LN6@operator
$LN5@operator:
  0009e	f2 0f 10 44 24
	20		 movsd	 xmm0, QWORD PTR $T1[rsp]
  000a4	66 0f 2e 44 24
	30		 ucomisd xmm0, QWORD PTR $T3[rsp]
  000aa	7a 19		 jp	 SHORT $LN3@operator
  000ac	75 17		 jne	 SHORT $LN3@operator
  000ae	0f b6 05 00 00
	00 00		 movzx	 eax, BYTE PTR ?equivalent@partial_ordering@std@@2U12@B ; std::partial_ordering::equivalent
  000b5	88 44 24 60	 mov	 BYTE PTR $T11[rsp], al
  000b9	48 8d 44 24 60	 lea	 rax, QWORD PTR $T11[rsp]
  000be	48 89 44 24 70	 mov	 QWORD PTR tv77[rsp], rax
  000c3	eb 15		 jmp	 SHORT $LN4@operator
$LN3@operator:
  000c5	0f b6 05 00 00
	00 00		 movzx	 eax, BYTE PTR ?unordered@partial_ordering@std@@2U12@B ; std::partial_ordering::unordered
  000cc	88 44 24 61	 mov	 BYTE PTR $T12[rsp], al
  000d0	48 8d 44 24 61	 lea	 rax, QWORD PTR $T12[rsp]
  000d5	48 89 44 24 70	 mov	 QWORD PTR tv77[rsp], rax
$LN4@operator:
  000da	48 8b 44 24 70	 mov	 rax, QWORD PTR tv77[rsp]
  000df	48 89 44 24 58	 mov	 QWORD PTR $T10[rsp], rax
  000e4	48 8b 44 24 58	 mov	 rax, QWORD PTR $T10[rsp]
  000e9	0f b6 00	 movzx	 eax, BYTE PTR [rax]
  000ec	88 44 24 51	 mov	 BYTE PTR $T9[rsp], al
  000f0	48 8d 44 24 51	 lea	 rax, QWORD PTR $T9[rsp]
  000f5	48 89 44 24 68	 mov	 QWORD PTR tv79[rsp], rax
$LN6@operator:
  000fa	48 8b 44 24 68	 mov	 rax, QWORD PTR tv79[rsp]
  000ff	48 89 44 24 48	 mov	 QWORD PTR $T7[rsp], rax
  00104	48 8b 44 24 48	 mov	 rax, QWORD PTR $T7[rsp]
  00109	0f b6 00	 movzx	 eax, BYTE PTR [rax]
  0010c	88 44 24 41	 mov	 BYTE PTR $T6[rsp], al
  00110	0f b6 44 24 41	 movzx	 eax, BYTE PTR $T6[rsp]
  00115	88 44 24 62	 mov	 BYTE PTR $T13[rsp], al
$LN8@operator:
  00119	0f b6 44 24 62	 movzx	 eax, BYTE PTR $T13[rsp]
; Line 416
  0011e	48 81 c4 80 00
	00 00		 add	 rsp, 128		; 00000080H
  00125	5f		 pop	 rdi
  00126	c3		 ret	 0
??$?__MNU?$ratio@$00$00@std@@_JU?$ratio@$00$0DLJKMKAA@@1@@chrono@std@@YA?A_PAEBV?$duration@NU?$ratio@$00$00@std@@@01@AEBV?$duration@_JU?$ratio@$00$0DLJKMKAA@@std@@@01@@Z ENDP ; std::chrono::operator<=><double,std::ratio<1,1>,__int64,std::ratio<1,1000000000> >
_TEXT	ENDS
; Function compile flags: /Odtp /RTCsu
;	COMDAT ??$?0_JU?$ratio@$00$0JIJGIA@@std@@$0A@@?$duration@_JU?$ratio@$00$0DLJKMKAA@@std@@@chrono@std@@QEAA@AEBV?$duration@_JU?$ratio@$00$0JIJGIA@@std@@@12@@Z
_TEXT	SEGMENT
$T1 = 32
this$ = 64
_Dur$ = 72
??$?0_JU?$ratio@$00$0JIJGIA@@std@@$0A@@?$duration@_JU?$ratio@$00$0DLJKMKAA@@std@@@chrono@std@@QEAA@AEBV?$duration@_JU?$ratio@$00$0JIJGIA@@std@@@12@@Z PROC ; std::chrono::duration<__int64,std::ratio<1,1000000000> >::duration<__int64,std::ratio<1,1000000000> ><__int64,std::ratio<1,10000000>,0>, COMDAT
; File C:\Program Files\Microsoft Visual Studio\2022\Community\VC\Tools\MSVC\14.38.33130\include\__msvc_chrono.hpp
; Line 106
$LN3:
  00000	48 89 54 24 10	 mov	 QWORD PTR [rsp+16], rdx
  00005	48 89 4c 24 08	 mov	 QWORD PTR [rsp+8], rcx
  0000a	57		 push	 rdi
  0000b	48 83 ec 30	 sub	 rsp, 48			; 00000030H
  0000f	48 8b 54 24 48	 mov	 rdx, QWORD PTR _Dur$[rsp]
  00014	48 8d 4c 24 20	 lea	 rcx, QWORD PTR $T1[rsp]
  00019	e8 00 00 00 00	 call	 ??$duration_cast@V?$duration@_JU?$ratio@$00$0DLJKMKAA@@std@@@chrono@std@@_JU?$ratio@$00$0JIJGIA@@3@$0A@@chrono@std@@YA?AV?$duration@_JU?$ratio@$00$0DLJKMKAA@@std@@@01@AEBV?$duration@_JU?$ratio@$00$0JIJGIA@@std@@@01@@Z ; std::chrono::duration_cast<std::chrono::duration<__int64,std::ratio<1,1000000000> >,__int64,std::ratio<1,10000000>,0>
  0001e	48 8b c8	 mov	 rcx, rax
  00021	e8 00 00 00 00	 call	 ?count@?$duration@_JU?$ratio@$00$0DLJKMKAA@@std@@@chrono@std@@QEBA_JXZ ; std::chrono::duration<__int64,std::ratio<1,1000000000> >::count
  00026	48 8b 4c 24 40	 mov	 rcx, QWORD PTR this$[rsp]
  0002b	48 89 01	 mov	 QWORD PTR [rcx], rax
  0002e	48 8b 44 24 40	 mov	 rax, QWORD PTR this$[rsp]
  00033	48 83 c4 30	 add	 rsp, 48			; 00000030H
  00037	5f		 pop	 rdi
  00038	c3		 ret	 0
??$?0_JU?$ratio@$00$0JIJGIA@@std@@$0A@@?$duration@_JU?$ratio@$00$0DLJKMKAA@@std@@@chrono@std@@QEAA@AEBV?$duration@_JU?$ratio@$00$0JIJGIA@@std@@@12@@Z ENDP ; std::chrono::duration<__int64,std::ratio<1,1000000000> >::duration<__int64,std::ratio<1,1000000000> ><__int64,std::ratio<1,10000000>,0>
_TEXT	ENDS
; Function compile flags: /Odtp /RTCsu
;	COMDAT ??$?G_JU?$ratio@$00$0DLJKMKAA@@std@@_JU01@@chrono@std@@YA?AV?$duration@_JU?$ratio@$00$0DLJKMKAA@@std@@@01@AEBV201@0@Z
_TEXT	SEGMENT
$T1 = 32
$T2 = 40
$T3 = 48
tv68 = 56
__$ReturnUdt$ = 80
_Left$ = 88
_Right$ = 96
??$?G_JU?$ratio@$00$0DLJKMKAA@@std@@_JU01@@chrono@std@@YA?AV?$duration@_JU?$ratio@$00$0DLJKMKAA@@std@@@01@AEBV201@0@Z PROC ; std::chrono::operator-<__int64,std::ratio<1,1000000000>,__int64,std::ratio<1,1000000000> >, COMDAT
; File C:\Program Files\Microsoft Visual Studio\2022\Community\VC\Tools\MSVC\14.38.33130\include\__msvc_chrono.hpp
; Line 289
$LN3:
  00000	4c 89 44 24 18	 mov	 QWORD PTR [rsp+24], r8
  00005	48 89 54 24 10	 mov	 QWORD PTR [rsp+16], rdx
  0000a	48 89 4c 24 08	 mov	 QWORD PTR [rsp+8], rcx
  0000f	57		 push	 rdi
  00010	48 83 ec 40	 sub	 rsp, 64			; 00000040H
; Line 291
  00014	48 8b 44 24 58	 mov	 rax, QWORD PTR _Left$[rsp]
  00019	48 8b 00	 mov	 rax, QWORD PTR [rax]
  0001c	48 89 44 24 28	 mov	 QWORD PTR $T2[rsp], rax
  00021	48 8b 44 24 60	 mov	 rax, QWORD PTR _Right$[rsp]
  00026	48 8b 00	 mov	 rax, QWORD PTR [rax]
  00029	48 89 44 24 30	 mov	 QWORD PTR $T3[rsp], rax
  0002e	48 8d 4c 24 28	 lea	 rcx, QWORD PTR $T2[rsp]
  00033	e8 00 00 00 00	 call	 ?count@?$duration@_JU?$ratio@$00$0DLJKMKAA@@std@@@chrono@std@@QEBA_JXZ ; std::chrono::duration<__int64,std::ratio<1,1000000000> >::count
  00038	48 89 44 24 38	 mov	 QWORD PTR tv68[rsp], rax
  0003d	48 8d 4c 24 30	 lea	 rcx, QWORD PTR $T3[rsp]
  00042	e8 00 00 00 00	 call	 ?count@?$duration@_JU?$ratio@$00$0DLJKMKAA@@std@@@chrono@std@@QEBA_JXZ ; std::chrono::duration<__int64,std::ratio<1,1000000000> >::count
  00047	48 8b 4c 24 38	 mov	 rcx, QWORD PTR tv68[rsp]
  0004c	48 2b c8	 sub	 rcx, rax
  0004f	48 8b c1	 mov	 rax, rcx
  00052	48 89 44 24 20	 mov	 QWORD PTR $T1[rsp], rax
  00057	48 8d 54 24 20	 lea	 rdx, QWORD PTR $T1[rsp]
  0005c	48 8b 4c 24 50	 mov	 rcx, QWORD PTR __$ReturnUdt$[rsp]
  00061	e8 00 00 00 00	 call	 ??$?0_J$0A@@?$duration@_JU?$ratio@$00$0DLJKMKAA@@std@@@chrono@std@@QEAA@AEB_J@Z ; std::chrono::duration<__int64,std::ratio<1,1000000000> >::duration<__int64,std::ratio<1,1000000000> ><__int64,0>
  00066	48 8b 44 24 50	 mov	 rax, QWORD PTR __$ReturnUdt$[rsp]
; Line 292
  0006b	48 83 c4 40	 add	 rsp, 64			; 00000040H
  0006f	5f		 pop	 rdi
  00070	c3		 ret	 0
??$?G_JU?$ratio@$00$0DLJKMKAA@@std@@_JU01@@chrono@std@@YA?AV?$duration@_JU?$ratio@$00$0DLJKMKAA@@std@@@01@AEBV201@0@Z ENDP ; std::chrono::operator-<__int64,std::ratio<1,1000000000>,__int64,std::ratio<1,1000000000> >
_TEXT	ENDS
; Function compile flags: /Odtp /RTCsu
;	COMDAT ??$_To_timespec64_sys_10_day_clamped@_JU?$ratio@$00$0DLJKMKAA@@std@@@std@@YA_NAEAU_timespec64@@AEBV?$duration@_JU?$ratio@$00$0DLJKMKAA@@std@@@chrono@0@@Z
_TEXT	SEGMENT
_Ten_days$ = 40
_Ten_days_d$ = 72
_Tx0$ = 104
_Clamped$ = 116
_Whole_seconds$ = 136
$T7 = 152
$T8 = 160
$T9 = 168
$T10 = 169
$T11 = 170
$T12 = 171
$T13 = 172
$T14 = 176
$T15 = 184
_Ts64$ = 208
_Rel_time$ = 216
??$_To_timespec64_sys_10_day_clamped@_JU?$ratio@$00$0DLJKMKAA@@std@@@std@@YA_NAEAU_timespec64@@AEBV?$duration@_JU?$ratio@$00$0DLJKMKAA@@std@@@chrono@0@@Z PROC ; std::_To_timespec64_sys_10_day_clamped<__int64,std::ratio<1,1000000000> >, COMDAT
; File C:\Program Files\Microsoft Visual Studio\2022\Community\VC\Tools\MSVC\14.38.33130\include\__msvc_chrono.hpp
; Line 720
$LN5:
  00000	48 89 54 24 10	 mov	 QWORD PTR [rsp+16], rdx
  00005	48 89 4c 24 08	 mov	 QWORD PTR [rsp+8], rcx
  0000a	57		 push	 rdi
  0000b	48 81 ec c0 00
	00 00		 sub	 rsp, 192		; 000000c0H
  00012	48 8d 7c 24 20	 lea	 rdi, QWORD PTR [rsp+32]
  00017	b9 28 00 00 00	 mov	 ecx, 40			; 00000028H
  0001c	b8 cc cc cc cc	 mov	 eax, -858993460		; ccccccccH
  00021	f3 ab		 rep stosd
  00023	48 8b 8c 24 d0
	00 00 00	 mov	 rcx, QWORD PTR [rsp+208]
; Line 725
  0002b	48 b8 00 00 16
	ad cd 11 03 00	 mov	 rax, 864000000000000	; 000311cdad160000H
  00035	48 89 44 24 28	 mov	 QWORD PTR _Ten_days$[rsp], rax
; Line 726
  0003a	f2 0f 10 05 00
	00 00 00	 movsd	 xmm0, QWORD PTR __real@412a5e0000000000
  00042	f2 0f 11 44 24
	48		 movsd	 QWORD PTR _Ten_days_d$[rsp], xmm0
; Line 727
  00048	e8 00 00 00 00	 call	 _Xtime_get_ticks
  0004d	48 89 84 24 a0
	00 00 00	 mov	 QWORD PTR $T8[rsp], rax
  00055	48 8d 94 24 a0
	00 00 00	 lea	 rdx, QWORD PTR $T8[rsp]
  0005d	48 8d 8c 24 98
	00 00 00	 lea	 rcx, QWORD PTR $T7[rsp]
  00065	e8 00 00 00 00	 call	 ??$?0_J$0A@@?$duration@_JU?$ratio@$00$0JIJGIA@@std@@@chrono@std@@QEAA@AEB_J@Z ; std::chrono::duration<__int64,std::ratio<1,10000000> >::duration<__int64,std::ratio<1,10000000> ><__int64,0>
  0006a	48 8b d0	 mov	 rdx, rax
  0006d	48 8d 4c 24 68	 lea	 rcx, QWORD PTR _Tx0$[rsp]
  00072	e8 00 00 00 00	 call	 ??$?0_JU?$ratio@$00$0JIJGIA@@std@@$0A@@?$duration@_JU?$ratio@$00$0DLJKMKAA@@std@@@chrono@std@@QEAA@AEBV?$duration@_JU?$ratio@$00$0JIJGIA@@std@@@12@@Z ; std::chrono::duration<__int64,std::ratio<1,1000000000> >::duration<__int64,std::ratio<1,1000000000> ><__int64,std::ratio<1,10000000>,0>
; Line 728
  00077	48 8d 84 24 a8
	00 00 00	 lea	 rax, QWORD PTR $T9[rsp]
  0007f	48 8b f8	 mov	 rdi, rax
  00082	33 c0		 xor	 eax, eax
  00084	b9 01 00 00 00	 mov	 ecx, 1
  00089	f3 aa		 rep stosb
  0008b	0f b6 84 24 a8
	00 00 00	 movzx	 eax, BYTE PTR $T9[rsp]
  00093	88 84 24 aa 00
	00 00		 mov	 BYTE PTR $T11[rsp], al
  0009a	0f b6 84 24 aa
	00 00 00	 movzx	 eax, BYTE PTR $T11[rsp]
  000a2	88 84 24 ac 00
	00 00		 mov	 BYTE PTR $T13[rsp], al
  000a9	48 8b 94 24 d8
	00 00 00	 mov	 rdx, QWORD PTR _Rel_time$[rsp]
  000b1	48 8d 4c 24 48	 lea	 rcx, QWORD PTR _Ten_days_d$[rsp]
  000b6	e8 00 00 00 00	 call	 ??$?__MNU?$ratio@$00$00@std@@_JU?$ratio@$00$0DLJKMKAA@@1@@chrono@std@@YA?A_PAEBV?$duration@NU?$ratio@$00$00@std@@@01@AEBV?$duration@_JU?$ratio@$00$0DLJKMKAA@@std@@@01@@Z ; std::chrono::operator<=><double,std::ratio<1,1>,__int64,std::ratio<1,1000000000> >
  000bb	88 84 24 a9 00
	00 00		 mov	 BYTE PTR $T10[rsp], al
  000c2	0f b6 84 24 a9
	00 00 00	 movzx	 eax, BYTE PTR $T10[rsp]
  000ca	88 84 24 ab 00
	00 00		 mov	 BYTE PTR $T12[rsp], al
  000d1	0f b6 94 24 ac
	00 00 00	 movzx	 edx, BYTE PTR $T13[rsp]
  000d9	0f b6 8c 24 ab
	00 00 00	 movzx	 ecx, BYTE PTR $T12[rsp]
  000e1	e8 00 00 00 00	 call	 ??Mstd@@YA_NUpartial_ordering@0@U_Literal_zero@0@@Z ; std::operator<
  000e6	88 44 24 74	 mov	 BYTE PTR _Clamped$[rsp], al
; Line 729
  000ea	0f b6 44 24 74	 movzx	 eax, BYTE PTR _Clamped$[rsp]
  000ef	85 c0		 test	 eax, eax
  000f1	74 11		 je	 SHORT $LN2@To_timespe
; Line 730
  000f3	48 8d 54 24 28	 lea	 rdx, QWORD PTR _Ten_days$[rsp]
  000f8	48 8d 4c 24 68	 lea	 rcx, QWORD PTR _Tx0$[rsp]
  000fd	e8 00 00 00 00	 call	 ??Y?$duration@_JU?$ratio@$00$0DLJKMKAA@@std@@@chrono@std@@QEAAAEAV012@AEBV012@@Z ; std::chrono::duration<__int64,std::ratio<1,1000000000> >::operator+=
; Line 731
  00102	eb 22		 jmp	 SHORT $LN3@To_timespe
$LN2@To_timespe:
; Line 732
  00104	48 8b 94 24 d8
	00 00 00	 mov	 rdx, QWORD PTR _Rel_time$[rsp]
  0010c	48 8d 8c 24 b0
	00 00 00	 lea	 rcx, QWORD PTR $T14[rsp]
  00114	e8 00 00 00 00	 call	 ??$duration_cast@V?$duration@_JU?$ratio@$00$0DLJKMKAA@@std@@@chrono@std@@_JU?$ratio@$00$0DLJKMKAA@@3@$0A@@chrono@std@@YA?AV?$duration@_JU?$ratio@$00$0DLJKMKAA@@std@@@01@AEBV201@@Z ; std::chrono::duration_cast<std::chrono::duration<__int64,std::ratio<1,1000000000> >,__int64,std::ratio<1,1000000000>,0>
  00119	48 8b d0	 mov	 rdx, rax
  0011c	48 8d 4c 24 68	 lea	 rcx, QWORD PTR _Tx0$[rsp]
  00121	e8 00 00 00 00	 call	 ??Y?$duration@_JU?$ratio@$00$0DLJKMKAA@@std@@@chrono@std@@QEAAAEAV012@AEBV012@@Z ; std::chrono::duration<__int64,std::ratio<1,1000000000> >::operator+=
$LN3@To_timespe:
; Line 735
  00126	48 8d 54 24 68	 lea	 rdx, QWORD PTR _Tx0$[rsp]
  0012b	48 8d 8c 24 88
	00 00 00	 lea	 rcx, QWORD PTR _Whole_seconds$[rsp]
  00133	e8 00 00 00 00	 call	 ??$duration_cast@V?$duration@_JU?$ratio@$00$00@std@@@chrono@std@@_JU?$ratio@$00$0DLJKMKAA@@3@$0A@@chrono@std@@YA?AV?$duration@_JU?$ratio@$00$00@std@@@01@AEBV?$duration@_JU?$ratio@$00$0DLJKMKAA@@std@@@01@@Z ; std::chrono::duration_cast<std::chrono::duration<__int64,std::ratio<1,1> >,__int64,std::ratio<1,1000000000>,0>
; Line 736
  00138	48 8d 8c 24 88
	00 00 00	 lea	 rcx, QWORD PTR _Whole_seconds$[rsp]
  00140	e8 00 00 00 00	 call	 ?count@?$duration@_JU?$ratio@$00$00@std@@@chrono@std@@QEBA_JXZ ; std::chrono::duration<__int64,std::ratio<1,1> >::count
  00145	48 8b 8c 24 d0
	00 00 00	 mov	 rcx, QWORD PTR _Ts64$[rsp]
  0014d	48 89 01	 mov	 QWORD PTR [rcx], rax
; Line 737
  00150	48 8d 94 24 88
	00 00 00	 lea	 rdx, QWORD PTR _Whole_seconds$[rsp]
  00158	48 8d 8c 24 b8
	00 00 00	 lea	 rcx, QWORD PTR $T15[rsp]
  00160	e8 00 00 00 00	 call	 ??$?0_JU?$ratio@$00$00@std@@$0A@@?$duration@_JU?$ratio@$00$0DLJKMKAA@@std@@@chrono@std@@QEAA@AEBV?$duration@_JU?$ratio@$00$00@std@@@12@@Z ; std::chrono::duration<__int64,std::ratio<1,1000000000> >::duration<__int64,std::ratio<1,1000000000> ><__int64,std::ratio<1,1>,0>
  00165	48 8d 94 24 b8
	00 00 00	 lea	 rdx, QWORD PTR $T15[rsp]
  0016d	48 8d 4c 24 68	 lea	 rcx, QWORD PTR _Tx0$[rsp]
  00172	e8 00 00 00 00	 call	 ??Z?$duration@_JU?$ratio@$00$0DLJKMKAA@@std@@@chrono@std@@QEAAAEAV012@AEBV012@@Z ; std::chrono::duration<__int64,std::ratio<1,1000000000> >::operator-=
; Line 738
  00177	48 8d 4c 24 68	 lea	 rcx, QWORD PTR _Tx0$[rsp]
  0017c	e8 00 00 00 00	 call	 ?count@?$duration@_JU?$ratio@$00$0DLJKMKAA@@std@@@chrono@std@@QEBA_JXZ ; std::chrono::duration<__int64,std::ratio<1,1000000000> >::count
  00181	48 8b 8c 24 d0
	00 00 00	 mov	 rcx, QWORD PTR _Ts64$[rsp]
  00189	89 41 08	 mov	 DWORD PTR [rcx+8], eax
; Line 739
  0018c	0f b6 44 24 74	 movzx	 eax, BYTE PTR _Clamped$[rsp]
; Line 740
  00191	8b f8		 mov	 edi, eax
  00193	48 8b cc	 mov	 rcx, rsp
  00196	48 8d 15 00 00
	00 00		 lea	 rdx, OFFSET FLAT:??$_To_timespec64_sys_10_day_clamped@_JU?$ratio@$00$0DLJKMKAA@@std@@@std@@YA_NAEAU_timespec64@@AEBV?$duration@_JU?$ratio@$00$0DLJKMKAA@@std@@@chrono@0@@Z$rtcFrameData
  0019d	e8 00 00 00 00	 call	 _RTC_CheckStackVars
  001a2	8b c7		 mov	 eax, edi
  001a4	48 81 c4 c0 00
	00 00		 add	 rsp, 192		; 000000c0H
  001ab	5f		 pop	 rdi
  001ac	c3		 ret	 0
??$_To_timespec64_sys_10_day_clamped@_JU?$ratio@$00$0DLJKMKAA@@std@@@std@@YA_NAEAU_timespec64@@AEBV?$duration@_JU?$ratio@$00$0DLJKMKAA@@std@@@chrono@0@@Z ENDP ; std::_To_timespec64_sys_10_day_clamped<__int64,std::ratio<1,1000000000> >
_TEXT	ENDS
; Function compile flags: /Odtp /RTCsu
;	COMDAT ??$?GUsteady_clock@chrono@std@@V?$duration@_JU?$ratio@$00$0DLJKMKAA@@std@@@12@V312@@chrono@std@@YA?AV?$duration@_JU?$ratio@$00$0DLJKMKAA@@std@@@01@AEBV?$time_point@Usteady_clock@chrono@std@@V?$duration@_JU?$ratio@$00$0DLJKMKAA@@std@@@23@@01@0@Z
_TEXT	SEGMENT
$T1 = 32
$T2 = 40
tv77 = 48
tv75 = 56
__$ReturnUdt$ = 80
_Left$ = 88
_Right$ = 96
??$?GUsteady_clock@chrono@std@@V?$duration@_JU?$ratio@$00$0DLJKMKAA@@std@@@12@V312@@chrono@std@@YA?AV?$duration@_JU?$ratio@$00$0DLJKMKAA@@std@@@01@AEBV?$time_point@Usteady_clock@chrono@std@@V?$duration@_JU?$ratio@$00$0DLJKMKAA@@std@@@23@@01@0@Z PROC ; std::chrono::operator-<std::chrono::steady_clock,std::chrono::duration<__int64,std::ratio<1,1000000000> >,std::chrono::duration<__int64,std::ratio<1,1000000000> > >, COMDAT
; File C:\Program Files\Microsoft Visual Studio\2022\Community\VC\Tools\MSVC\14.38.33130\include\__msvc_chrono.hpp
; Line 548
$LN3:
  00000	4c 89 44 24 18	 mov	 QWORD PTR [rsp+24], r8
  00005	48 89 54 24 10	 mov	 QWORD PTR [rsp+16], rdx
  0000a	48 89 4c 24 08	 mov	 QWORD PTR [rsp+8], rcx
  0000f	57		 push	 rdi
  00010	48 83 ec 40	 sub	 rsp, 64			; 00000040H
; Line 549
  00014	48 8d 54 24 20	 lea	 rdx, QWORD PTR $T1[rsp]
  00019	48 8b 4c 24 60	 mov	 rcx, QWORD PTR _Right$[rsp]
  0001e	e8 00 00 00 00	 call	 ?time_since_epoch@?$time_point@Usteady_clock@chrono@std@@V?$duration@_JU?$ratio@$00$0DLJKMKAA@@std@@@23@@chrono@std@@QEBA?AV?$duration@_JU?$ratio@$00$0DLJKMKAA@@std@@@23@XZ ; std::chrono::time_point<std::chrono::steady_clock,std::chrono::duration<__int64,std::ratio<1,1000000000> > >::time_since_epoch
  00023	48 89 44 24 30	 mov	 QWORD PTR tv77[rsp], rax
  00028	48 8d 54 24 28	 lea	 rdx, QWORD PTR $T2[rsp]
  0002d	48 8b 4c 24 58	 mov	 rcx, QWORD PTR _Left$[rsp]
  00032	e8 00 00 00 00	 call	 ?time_since_epoch@?$time_point@Usteady_clock@chrono@std@@V?$duration@_JU?$ratio@$00$0DLJKMKAA@@std@@@23@@chrono@std@@QEBA?AV?$duration@_JU?$ratio@$00$0DLJKMKAA@@std@@@23@XZ ; std::chrono::time_point<std::chrono::steady_clock,std::chrono::duration<__int64,std::ratio<1,1000000000> > >::time_since_epoch
  00037	48 89 44 24 38	 mov	 QWORD PTR tv75[rsp], rax
  0003c	4c 8b 44 24 30	 mov	 r8, QWORD PTR tv77[rsp]
  00041	48 8b 54 24 38	 mov	 rdx, QWORD PTR tv75[rsp]
  00046	48 8b 4c 24 50	 mov	 rcx, QWORD PTR __$ReturnUdt$[rsp]
  0004b	e8 00 00 00 00	 call	 ??$?G_JU?$ratio@$00$0DLJKMKAA@@std@@_JU01@@chrono@std@@YA?AV?$duration@_JU?$ratio@$00$0DLJKMKAA@@std@@@01@AEBV201@0@Z ; std::chrono::operator-<__int64,std::ratio<1,1000000000>,__int64,std::ratio<1,1000000000> >
  00050	48 8b 44 24 50	 mov	 rax, QWORD PTR __$ReturnUdt$[rsp]
; Line 550
  00055	48 83 c4 40	 add	 rsp, 64			; 00000040H
  00059	5f		 pop	 rdi
  0005a	c3		 ret	 0
??$?GUsteady_clock@chrono@std@@V?$duration@_JU?$ratio@$00$0DLJKMKAA@@std@@@12@V312@@chrono@std@@YA?AV?$duration@_JU?$ratio@$00$0DLJKMKAA@@std@@@01@AEBV?$time_point@Usteady_clock@chrono@std@@V?$duration@_JU?$ratio@$00$0DLJKMKAA@@std@@@23@@01@0@Z ENDP ; std::chrono::operator-<std::chrono::steady_clock,std::chrono::duration<__int64,std::ratio<1,1000000000> >,std::chrono::duration<__int64,std::ratio<1,1000000000> > >
_TEXT	ENDS
; Function compile flags: /Odtp /RTCsu
;	COMDAT ??$duration_cast@V?$duration@_JU?$ratio@$00$0DLJKMKAA@@std@@@chrono@std@@_JU?$ratio@$00$0DOI@@3@$0A@@chrono@std@@YA?AV?$duration@_JU?$ratio@$00$0DLJKMKAA@@std@@@01@AEBV?$duration@_JU?$ratio@$00$0DOI@@std@@@01@@Z
_TEXT	SEGMENT
_Num_is_one$ = 32
_Den_is_one$ = 33
$T1 = 40
__$ReturnUdt$ = 64
_Dur$ = 72
??$duration_cast@V?$duration@_JU?$ratio@$00$0DLJKMKAA@@std@@@chrono@std@@_JU?$ratio@$00$0DOI@@3@$0A@@chrono@std@@YA?AV?$duration@_JU?$ratio@$00$0DLJKMKAA@@std@@@01@AEBV?$duration@_JU?$ratio@$00$0DOI@@std@@@01@@Z PROC ; std::chrono::duration_cast<std::chrono::duration<__int64,std::ratio<1,1000000000> >,__int64,std::ratio<1,1000>,0>, COMDAT
; File C:\Program Files\Microsoft Visual Studio\2022\Community\VC\Tools\MSVC\14.38.33130\include\__msvc_chrono.hpp
; Line 421
$LN3:
  00000	48 89 54 24 10	 mov	 QWORD PTR [rsp+16], rdx
  00005	48 89 4c 24 08	 mov	 QWORD PTR [rsp+8], rcx
  0000a	57		 push	 rdi
  0000b	48 83 ec 30	 sub	 rsp, 48			; 00000030H
; Line 428
  0000f	c6 44 24 20 00	 mov	 BYTE PTR _Num_is_one$[rsp], 0
; Line 429
  00014	c6 44 24 21 01	 mov	 BYTE PTR _Den_is_one$[rsp], 1
; Line 435
  00019	48 8b 4c 24 48	 mov	 rcx, QWORD PTR _Dur$[rsp]
  0001e	e8 00 00 00 00	 call	 ?count@?$duration@_JU?$ratio@$00$0DOI@@std@@@chrono@std@@QEBA_JXZ ; std::chrono::duration<__int64,std::ratio<1,1000> >::count
  00023	48 69 c0 40 42
	0f 00		 imul	 rax, rax, 1000000	; 000f4240H
  0002a	48 89 44 24 28	 mov	 QWORD PTR $T1[rsp], rax
  0002f	48 8d 54 24 28	 lea	 rdx, QWORD PTR $T1[rsp]
  00034	48 8b 4c 24 40	 mov	 rcx, QWORD PTR __$ReturnUdt$[rsp]
  00039	e8 00 00 00 00	 call	 ??$?0_J$0A@@?$duration@_JU?$ratio@$00$0DLJKMKAA@@std@@@chrono@std@@QEAA@AEB_J@Z ; std::chrono::duration<__int64,std::ratio<1,1000000000> >::duration<__int64,std::ratio<1,1000000000> ><__int64,0>
  0003e	48 8b 44 24 40	 mov	 rax, QWORD PTR __$ReturnUdt$[rsp]
; Line 447
  00043	48 83 c4 30	 add	 rsp, 48			; 00000030H
  00047	5f		 pop	 rdi
  00048	c3		 ret	 0
??$duration_cast@V?$duration@_JU?$ratio@$00$0DLJKMKAA@@std@@@chrono@std@@_JU?$ratio@$00$0DOI@@3@$0A@@chrono@std@@YA?AV?$duration@_JU?$ratio@$00$0DLJKMKAA@@std@@@01@AEBV?$duration@_JU?$ratio@$00$0DOI@@std@@@01@@Z ENDP ; std::chrono::duration_cast<std::chrono::duration<__int64,std::ratio<1,1000000000> >,__int64,std::ratio<1,1000>,0>
_TEXT	ENDS
; Function compile flags: /Odtp /RTCsu
;	COMDAT ??$?G_JU?$ratio@$00$0DLJKMKAA@@std@@_JU?$ratio@$00$0DOI@@1@@chrono@std@@YA?AV?$duration@_JU?$ratio@$00$0DLJKMKAA@@std@@@01@AEBV201@AEBV?$duration@_JU?$ratio@$00$0DOI@@std@@@01@@Z
_TEXT	SEGMENT
$T1 = 32
$T2 = 40
$T3 = 48
tv68 = 56
__$ReturnUdt$ = 80
_Left$ = 88
_Right$ = 96
??$?G_JU?$ratio@$00$0DLJKMKAA@@std@@_JU?$ratio@$00$0DOI@@1@@chrono@std@@YA?AV?$duration@_JU?$ratio@$00$0DLJKMKAA@@std@@@01@AEBV201@AEBV?$duration@_JU?$ratio@$00$0DOI@@std@@@01@@Z PROC ; std::chrono::operator-<__int64,std::ratio<1,1000000000>,__int64,std::ratio<1,1000> >, COMDAT
; File C:\Program Files\Microsoft Visual Studio\2022\Community\VC\Tools\MSVC\14.38.33130\include\__msvc_chrono.hpp
; Line 289
$LN3:
  00000	4c 89 44 24 18	 mov	 QWORD PTR [rsp+24], r8
  00005	48 89 54 24 10	 mov	 QWORD PTR [rsp+16], rdx
  0000a	48 89 4c 24 08	 mov	 QWORD PTR [rsp+8], rcx
  0000f	57		 push	 rdi
  00010	48 83 ec 40	 sub	 rsp, 64			; 00000040H
; Line 291
  00014	48 8b 44 24 58	 mov	 rax, QWORD PTR _Left$[rsp]
  00019	48 8b 00	 mov	 rax, QWORD PTR [rax]
  0001c	48 89 44 24 28	 mov	 QWORD PTR $T2[rsp], rax
  00021	48 8d 4c 24 28	 lea	 rcx, QWORD PTR $T2[rsp]
  00026	e8 00 00 00 00	 call	 ?count@?$duration@_JU?$ratio@$00$0DLJKMKAA@@std@@@chrono@std@@QEBA_JXZ ; std::chrono::duration<__int64,std::ratio<1,1000000000> >::count
  0002b	48 89 44 24 38	 mov	 QWORD PTR tv68[rsp], rax
  00030	48 8b 54 24 60	 mov	 rdx, QWORD PTR _Right$[rsp]
  00035	48 8d 4c 24 30	 lea	 rcx, QWORD PTR $T3[rsp]
  0003a	e8 00 00 00 00	 call	 ??$?0_JU?$ratio@$00$0DOI@@std@@$0A@@?$duration@_JU?$ratio@$00$0DLJKMKAA@@std@@@chrono@std@@QEAA@AEBV?$duration@_JU?$ratio@$00$0DOI@@std@@@12@@Z ; std::chrono::duration<__int64,std::ratio<1,1000000000> >::duration<__int64,std::ratio<1,1000000000> ><__int64,std::ratio<1,1000>,0>
  0003f	48 8b c8	 mov	 rcx, rax
  00042	e8 00 00 00 00	 call	 ?count@?$duration@_JU?$ratio@$00$0DLJKMKAA@@std@@@chrono@std@@QEBA_JXZ ; std::chrono::duration<__int64,std::ratio<1,1000000000> >::count
  00047	48 8b 4c 24 38	 mov	 rcx, QWORD PTR tv68[rsp]
  0004c	48 2b c8	 sub	 rcx, rax
  0004f	48 8b c1	 mov	 rax, rcx
  00052	48 89 44 24 20	 mov	 QWORD PTR $T1[rsp], rax
  00057	48 8d 54 24 20	 lea	 rdx, QWORD PTR $T1[rsp]
  0005c	48 8b 4c 24 50	 mov	 rcx, QWORD PTR __$ReturnUdt$[rsp]
  00061	e8 00 00 00 00	 call	 ??$?0_J$0A@@?$duration@_JU?$ratio@$00$0DLJKMKAA@@std@@@chrono@std@@QEAA@AEB_J@Z ; std::chrono::duration<__int64,std::ratio<1,1000000000> >::duration<__int64,std::ratio<1,1000000000> ><__int64,0>
  00066	48 8b 44 24 50	 mov	 rax, QWORD PTR __$ReturnUdt$[rsp]
; Line 292
  0006b	48 83 c4 40	 add	 rsp, 64			; 00000040H
  0006f	5f		 pop	 rdi
  00070	c3		 ret	 0
??$?G_JU?$ratio@$00$0DLJKMKAA@@std@@_JU?$ratio@$00$0DOI@@1@@chrono@std@@YA?AV?$duration@_JU?$ratio@$00$0DLJKMKAA@@std@@@01@AEBV201@AEBV?$duration@_JU?$ratio@$00$0DOI@@std@@@01@@Z ENDP ; std::chrono::operator-<__int64,std::ratio<1,1000000000>,__int64,std::ratio<1,1000> >
_TEXT	ENDS
; Function compile flags: /Odtp /RTCsu
;	COMDAT ??$sleep_until@Usteady_clock@chrono@std@@V?$duration@_JU?$ratio@$00$0DLJKMKAA@@std@@@23@@this_thread@std@@YAXAEBV?$time_point@Usteady_clock@chrono@std@@V?$duration@_JU?$ratio@$00$0DLJKMKAA@@std@@@23@@chrono@1@@Z
_TEXT	SEGMENT
_Now$5 = 40
_Tgt$6 = 72
$T7 = 112
$T8 = 113
$T9 = 114
$T10 = 115
$T11 = 116
$T12 = 120
__$ArrayPad$ = 128
_Abs_time$ = 160
??$sleep_until@Usteady_clock@chrono@std@@V?$duration@_JU?$ratio@$00$0DLJKMKAA@@std@@@23@@this_thread@std@@YAXAEBV?$time_point@Usteady_clock@chrono@std@@V?$duration@_JU?$ratio@$00$0DLJKMKAA@@std@@@23@@chrono@1@@Z PROC ; std::this_thread::sleep_until<std::chrono::steady_clock,std::chrono::duration<__int64,std::ratio<1,1000000000> > >, COMDAT
; File C:\Program Files\Microsoft Visual Studio\2022\Community\VC\Tools\MSVC\14.38.33130\include\thread
; Line 190
$LN7:
  00000	48 89 4c 24 08	 mov	 QWORD PTR [rsp+8], rcx
  00005	57		 push	 rdi
  00006	48 81 ec 90 00
	00 00		 sub	 rsp, 144		; 00000090H
  0000d	48 8d 7c 24 20	 lea	 rdi, QWORD PTR [rsp+32]
  00012	b9 1c 00 00 00	 mov	 ecx, 28
  00017	b8 cc cc cc cc	 mov	 eax, -858993460		; ccccccccH
  0001c	f3 ab		 rep stosd
  0001e	48 8b 8c 24 a0
	00 00 00	 mov	 rcx, QWORD PTR [rsp+160]
  00026	48 8b 05 00 00
	00 00		 mov	 rax, QWORD PTR __security_cookie
  0002d	48 33 c4	 xor	 rax, rsp
  00030	48 89 84 24 80
	00 00 00	 mov	 QWORD PTR __$ArrayPad$[rsp], rax
$LN2@sleep_unti:
; Line 195
  00038	48 8d 4c 24 28	 lea	 rcx, QWORD PTR _Now$5[rsp]
  0003d	e8 00 00 00 00	 call	 ?now@steady_clock@chrono@std@@SA?AV?$time_point@Usteady_clock@chrono@std@@V?$duration@_JU?$ratio@$00$0DLJKMKAA@@std@@@23@@23@XZ ; std::chrono::steady_clock::now
; Line 196
  00042	48 8d 44 24 70	 lea	 rax, QWORD PTR $T7[rsp]
  00047	48 8b f8	 mov	 rdi, rax
  0004a	33 c0		 xor	 eax, eax
  0004c	b9 01 00 00 00	 mov	 ecx, 1
  00051	f3 aa		 rep stosb
  00053	0f b6 44 24 70	 movzx	 eax, BYTE PTR $T7[rsp]
  00058	88 44 24 72	 mov	 BYTE PTR $T9[rsp], al
  0005c	0f b6 44 24 72	 movzx	 eax, BYTE PTR $T9[rsp]
  00061	88 44 24 74	 mov	 BYTE PTR $T11[rsp], al
  00065	48 8d 54 24 28	 lea	 rdx, QWORD PTR _Now$5[rsp]
  0006a	48 8b 8c 24 a0
	00 00 00	 mov	 rcx, QWORD PTR _Abs_time$[rsp]
  00072	e8 00 00 00 00	 call	 ??$?__MUsteady_clock@chrono@std@@V?$duration@_JU?$ratio@$00$0DLJKMKAA@@std@@@12@V312@@chrono@std@@YA?A_PAEBV?$time_point@Usteady_clock@chrono@std@@V?$duration@_JU?$ratio@$00$0DLJKMKAA@@std@@@23@@01@0@Z ; std::chrono::operator<=><std::chrono::steady_clock,std::chrono::duration<__int64,std::ratio<1,1000000000> >,std::chrono::duration<__int64,std::ratio<1,1000000000> > >
  00077	88 44 24 71	 mov	 BYTE PTR $T8[rsp], al
  0007b	0f b6 44 24 71	 movzx	 eax, BYTE PTR $T8[rsp]
  00080	88 44 24 73	 mov	 BYTE PTR $T10[rsp], al
  00084	0f b6 54 24 74	 movzx	 edx, BYTE PTR $T11[rsp]
  00089	0f b6 4c 24 73	 movzx	 ecx, BYTE PTR $T10[rsp]
  0008e	e8 00 00 00 00	 call	 ??Nstd@@YA_NUstrong_ordering@0@U_Literal_zero@0@@Z ; std::operator<=
  00093	0f b6 c0	 movzx	 eax, al
  00096	85 c0		 test	 eax, eax
  00098	74 02		 je	 SHORT $LN5@sleep_unti
; Line 197
  0009a	eb 33		 jmp	 SHORT $LN1@sleep_unti
$LN5@sleep_unti:
; Line 201
  0009c	4c 8d 44 24 28	 lea	 r8, QWORD PTR _Now$5[rsp]
  000a1	48 8b 94 24 a0
	00 00 00	 mov	 rdx, QWORD PTR _Abs_time$[rsp]
  000a9	48 8d 4c 24 78	 lea	 rcx, QWORD PTR $T12[rsp]
  000ae	e8 00 00 00 00	 call	 ??$?GUsteady_clock@chrono@std@@V?$duration@_JU?$ratio@$00$0DLJKMKAA@@std@@@12@V312@@chrono@std@@YA?AV?$duration@_JU?$ratio@$00$0DLJKMKAA@@std@@@01@AEBV?$time_point@Usteady_clock@chrono@std@@V?$duration@_JU?$ratio@$00$0DLJKMKAA@@std@@@23@@01@0@Z ; std::chrono::operator-<std::chrono::steady_clock,std::chrono::duration<__int64,std::ratio<1,1000000000> >,std::chrono::duration<__int64,std::ratio<1,1000000000> > >
  000b3	48 8b d0	 mov	 rdx, rax
  000b6	48 8d 4c 24 48	 lea	 rcx, QWORD PTR _Tgt$6[rsp]
  000bb	e8 00 00 00 00	 call	 ??$_To_timespec64_sys_10_day_clamped@_JU?$ratio@$00$0DLJKMKAA@@std@@@std@@YA_NAEAU_timespec64@@AEBV?$duration@_JU?$ratio@$00$0DLJKMKAA@@std@@@chrono@0@@Z ; std::_To_timespec64_sys_10_day_clamped<__int64,std::ratio<1,1000000000> >
; Line 202
  000c0	48 8d 4c 24 48	 lea	 rcx, QWORD PTR _Tgt$6[rsp]
  000c5	e8 00 00 00 00	 call	 _Thrd_sleep
; Line 203
  000ca	e9 69 ff ff ff	 jmp	 $LN2@sleep_unti
$LN1@sleep_unti:
; Line 204
  000cf	48 8b cc	 mov	 rcx, rsp
  000d2	48 8d 15 00 00
	00 00		 lea	 rdx, OFFSET FLAT:??$sleep_until@Usteady_clock@chrono@std@@V?$duration@_JU?$ratio@$00$0DLJKMKAA@@std@@@23@@this_thread@std@@YAXAEBV?$time_point@Usteady_clock@chrono@std@@V?$duration@_JU?$ratio@$00$0DLJKMKAA@@std@@@23@@chrono@1@@Z$rtcFrameData
  000d9	e8 00 00 00 00	 call	 _RTC_CheckStackVars
  000de	48 8b 8c 24 80
	00 00 00	 mov	 rcx, QWORD PTR __$ArrayPad$[rsp]
  000e6	48 33 cc	 xor	 rcx, rsp
  000e9	e8 00 00 00 00	 call	 __security_check_cookie
  000ee	48 81 c4 90 00
	00 00		 add	 rsp, 144		; 00000090H
  000f5	5f		 pop	 rdi
  000f6	c3		 ret	 0
??$sleep_until@Usteady_clock@chrono@std@@V?$duration@_JU?$ratio@$00$0DLJKMKAA@@std@@@23@@this_thread@std@@YAXAEBV?$time_point@Usteady_clock@chrono@std@@V?$duration@_JU?$ratio@$00$0DLJKMKAA@@std@@@23@@chrono@1@@Z ENDP ; std::this_thread::sleep_until<std::chrono::steady_clock,std::chrono::duration<__int64,std::ratio<1,1000000000> > >
_TEXT	ENDS
; Function compile flags: /Odtp /RTCsu
;	COMDAT ??$?0_JU?$ratio@$00$0DOI@@std@@$0A@@?$duration@_JU?$ratio@$00$0DLJKMKAA@@std@@@chrono@std@@QEAA@AEBV?$duration@_JU?$ratio@$00$0DOI@@std@@@12@@Z
_TEXT	SEGMENT
$T1 = 32
this$ = 64
_Dur$ = 72
??$?0_JU?$ratio@$00$0DOI@@std@@$0A@@?$duration@_JU?$ratio@$00$0DLJKMKAA@@std@@@chrono@std@@QEAA@AEBV?$duration@_JU?$ratio@$00$0DOI@@std@@@12@@Z PROC ; std::chrono::duration<__int64,std::ratio<1,1000000000> >::duration<__int64,std::ratio<1,1000000000> ><__int64,std::ratio<1,1000>,0>, COMDAT
; File C:\Program Files\Microsoft Visual Studio\2022\Community\VC\Tools\MSVC\14.38.33130\include\__msvc_chrono.hpp
; Line 106
$LN3:
  00000	48 89 54 24 10	 mov	 QWORD PTR [rsp+16], rdx
  00005	48 89 4c 24 08	 mov	 QWORD PTR [rsp+8], rcx
  0000a	57		 push	 rdi
  0000b	48 83 ec 30	 sub	 rsp, 48			; 00000030H
  0000f	48 8b 54 24 48	 mov	 rdx, QWORD PTR _Dur$[rsp]
  00014	48 8d 4c 24 20	 lea	 rcx, QWORD PTR $T1[rsp]
  00019	e8 00 00 00 00	 call	 ??$duration_cast@V?$duration@_JU?$ratio@$00$0DLJKMKAA@@std@@@chrono@std@@_JU?$ratio@$00$0DOI@@3@$0A@@chrono@std@@YA?AV?$duration@_JU?$ratio@$00$0DLJKMKAA@@std@@@01@AEBV?$duration@_JU?$ratio@$00$0DOI@@std@@@01@@Z ; std::chrono::duration_cast<std::chrono::duration<__int64,std::ratio<1,1000000000> >,__int64,std::ratio<1,1000>,0>
  0001e	48 8b c8	 mov	 rcx, rax
  00021	e8 00 00 00 00	 call	 ?count@?$duration@_JU?$ratio@$00$0DLJKMKAA@@std@@@chrono@std@@QEBA_JXZ ; std::chrono::duration<__int64,std::ratio<1,1000000000> >::count
  00026	48 8b 4c 24 40	 mov	 rcx, QWORD PTR this$[rsp]
  0002b	48 89 01	 mov	 QWORD PTR [rcx], rax
  0002e	48 8b 44 24 40	 mov	 rax, QWORD PTR this$[rsp]
  00033	48 83 c4 30	 add	 rsp, 48			; 00000030H
  00037	5f		 pop	 rdi
  00038	c3		 ret	 0
??$?0_JU?$ratio@$00$0DOI@@std@@$0A@@?$duration@_JU?$ratio@$00$0DLJKMKAA@@std@@@chrono@std@@QEAA@AEBV?$duration@_JU?$ratio@$00$0DOI@@std@@@12@@Z ENDP ; std::chrono::duration<__int64,std::ratio<1,1000000000> >::duration<__int64,std::ratio<1,1000000000> ><__int64,std::ratio<1,1000>,0>
_TEXT	ENDS
; Function compile flags: /Odtp /RTCsu
;	COMDAT ??$?__MUsteady_clock@chrono@std@@V?$duration@_JU?$ratio@$00$0DLJKMKAA@@std@@@12@V312@@chrono@std@@YA?A_PAEBV?$time_point@Usteady_clock@chrono@std@@V?$duration@_JU?$ratio@$00$0DLJKMKAA@@std@@@23@@01@0@Z
_TEXT	SEGMENT
$T1 = 32
$T2 = 40
$T3 = 48
tv76 = 56
tv74 = 64
_Left$ = 96
_Right$ = 104
??$?__MUsteady_clock@chrono@std@@V?$duration@_JU?$ratio@$00$0DLJKMKAA@@std@@@12@V312@@chrono@std@@YA?A_PAEBV?$time_point@Usteady_clock@chrono@std@@V?$duration@_JU?$ratio@$00$0DLJKMKAA@@std@@@23@@01@0@Z PROC ; std::chrono::operator<=><std::chrono::steady_clock,std::chrono::duration<__int64,std::ratio<1,1000000000> >,std::chrono::duration<__int64,std::ratio<1,1000000000> > >, COMDAT
; File C:\Program Files\Microsoft Visual Studio\2022\Community\VC\Tools\MSVC\14.38.33130\include\__msvc_chrono.hpp
; Line 600
$LN3:
  00000	48 89 54 24 10	 mov	 QWORD PTR [rsp+16], rdx
  00005	48 89 4c 24 08	 mov	 QWORD PTR [rsp+8], rcx
  0000a	57		 push	 rdi
  0000b	48 83 ec 50	 sub	 rsp, 80			; 00000050H
; Line 601
  0000f	48 8d 54 24 28	 lea	 rdx, QWORD PTR $T2[rsp]
  00014	48 8b 4c 24 68	 mov	 rcx, QWORD PTR _Right$[rsp]
  00019	e8 00 00 00 00	 call	 ?time_since_epoch@?$time_point@Usteady_clock@chrono@std@@V?$duration@_JU?$ratio@$00$0DLJKMKAA@@std@@@23@@chrono@std@@QEBA?AV?$duration@_JU?$ratio@$00$0DLJKMKAA@@std@@@23@XZ ; std::chrono::time_point<std::chrono::steady_clock,std::chrono::duration<__int64,std::ratio<1,1000000000> > >::time_since_epoch
  0001e	48 89 44 24 38	 mov	 QWORD PTR tv76[rsp], rax
  00023	48 8d 54 24 30	 lea	 rdx, QWORD PTR $T3[rsp]
  00028	48 8b 4c 24 60	 mov	 rcx, QWORD PTR _Left$[rsp]
  0002d	e8 00 00 00 00	 call	 ?time_since_epoch@?$time_point@Usteady_clock@chrono@std@@V?$duration@_JU?$ratio@$00$0DLJKMKAA@@std@@@23@@chrono@std@@QEBA?AV?$duration@_JU?$ratio@$00$0DLJKMKAA@@std@@@23@XZ ; std::chrono::time_point<std::chrono::steady_clock,std::chrono::duration<__int64,std::ratio<1,1000000000> > >::time_since_epoch
  00032	48 89 44 24 40	 mov	 QWORD PTR tv74[rsp], rax
  00037	48 8b 54 24 38	 mov	 rdx, QWORD PTR tv76[rsp]
  0003c	48 8b 4c 24 40	 mov	 rcx, QWORD PTR tv74[rsp]
  00041	e8 00 00 00 00	 call	 ??$?__M_JU?$ratio@$00$0DLJKMKAA@@std@@_JU01@@chrono@std@@YA?A_PAEBV?$duration@_JU?$ratio@$00$0DLJKMKAA@@std@@@01@0@Z ; std::chrono::operator<=><__int64,std::ratio<1,1000000000>,__int64,std::ratio<1,1000000000> >
  00046	88 44 24 20	 mov	 BYTE PTR $T1[rsp], al
  0004a	0f b6 44 24 20	 movzx	 eax, BYTE PTR $T1[rsp]
; Line 602
  0004f	48 83 c4 50	 add	 rsp, 80			; 00000050H
  00053	5f		 pop	 rdi
  00054	c3		 ret	 0
??$?__MUsteady_clock@chrono@std@@V?$duration@_JU?$ratio@$00$0DLJKMKAA@@std@@@12@V312@@chrono@std@@YA?A_PAEBV?$time_point@Usteady_clock@chrono@std@@V?$duration@_JU?$ratio@$00$0DLJKMKAA@@std@@@23@@01@0@Z ENDP ; std::chrono::operator<=><std::chrono::steady_clock,std::chrono::duration<__int64,std::ratio<1,1000000000> >,std::chrono::duration<__int64,std::ratio<1,1000000000> > >
_TEXT	ENDS
; Function compile flags: /Odtp /RTCsu
;	COMDAT ??$?__M_JU?$ratio@$00$0DLJKMKAA@@std@@_JU01@@chrono@std@@YA?A_PAEBV?$duration@_JU?$ratio@$00$0DLJKMKAA@@std@@@01@0@Z
_TEXT	SEGMENT
$T1 = 32
$T2 = 40
$T3 = 48
$T4 = 56
$T5 = 64
$T6 = 65
$T7 = 72
$T8 = 80
$T9 = 81
$T10 = 82
tv72 = 88
_Left$ = 112
_Right$ = 120
??$?__M_JU?$ratio@$00$0DLJKMKAA@@std@@_JU01@@chrono@std@@YA?A_PAEBV?$duration@_JU?$ratio@$00$0DLJKMKAA@@std@@@01@0@Z PROC ; std::chrono::operator<=><__int64,std::ratio<1,1000000000>,__int64,std::ratio<1,1000000000> >, COMDAT
; File C:\Program Files\Microsoft Visual Studio\2022\Community\VC\Tools\MSVC\14.38.33130\include\__msvc_chrono.hpp
; Line 413
$LN7:
  00000	48 89 54 24 10	 mov	 QWORD PTR [rsp+16], rdx
  00005	48 89 4c 24 08	 mov	 QWORD PTR [rsp+8], rcx
  0000a	57		 push	 rdi
  0000b	48 83 ec 60	 sub	 rsp, 96			; 00000060H
; Line 415
  0000f	48 8b 44 24 70	 mov	 rax, QWORD PTR _Left$[rsp]
  00014	48 8b 00	 mov	 rax, QWORD PTR [rax]
  00017	48 89 44 24 28	 mov	 QWORD PTR $T2[rsp], rax
  0001c	48 8d 4c 24 28	 lea	 rcx, QWORD PTR $T2[rsp]
  00021	e8 00 00 00 00	 call	 ?count@?$duration@_JU?$ratio@$00$0DLJKMKAA@@std@@@chrono@std@@QEBA_JXZ ; std::chrono::duration<__int64,std::ratio<1,1000000000> >::count
  00026	48 89 44 24 20	 mov	 QWORD PTR $T1[rsp], rax
  0002b	48 8b 44 24 78	 mov	 rax, QWORD PTR _Right$[rsp]
  00030	48 8b 00	 mov	 rax, QWORD PTR [rax]
  00033	48 89 44 24 38	 mov	 QWORD PTR $T4[rsp], rax
  00038	48 8d 4c 24 38	 lea	 rcx, QWORD PTR $T4[rsp]
  0003d	e8 00 00 00 00	 call	 ?count@?$duration@_JU?$ratio@$00$0DLJKMKAA@@std@@@chrono@std@@QEBA_JXZ ; std::chrono::duration<__int64,std::ratio<1,1000000000> >::count
  00042	48 89 44 24 30	 mov	 QWORD PTR $T3[rsp], rax
  00047	48 8b 44 24 30	 mov	 rax, QWORD PTR $T3[rsp]
  0004c	48 39 44 24 20	 cmp	 QWORD PTR $T1[rsp], rax
  00051	75 16		 jne	 SHORT $LN5@operator
  00053	0f b6 05 00 00
	00 00		 movzx	 eax, BYTE PTR ?equal@strong_ordering@std@@2U12@B ; std::strong_ordering::equal
  0005a	88 44 24 40	 mov	 BYTE PTR $T5[rsp], al
  0005e	0f b6 44 24 40	 movzx	 eax, BYTE PTR $T5[rsp]
  00063	88 44 24 52	 mov	 BYTE PTR $T10[rsp], al
  00067	eb 57		 jmp	 SHORT $LN6@operator
$LN5@operator:
  00069	48 8b 44 24 30	 mov	 rax, QWORD PTR $T3[rsp]
  0006e	48 39 44 24 20	 cmp	 QWORD PTR $T1[rsp], rax
  00073	7d 17		 jge	 SHORT $LN3@operator
  00075	0f b6 05 00 00
	00 00		 movzx	 eax, BYTE PTR ?less@strong_ordering@std@@2U12@B ; std::strong_ordering::less
  0007c	88 44 24 50	 mov	 BYTE PTR $T8[rsp], al
  00080	48 8d 44 24 50	 lea	 rax, QWORD PTR $T8[rsp]
  00085	48 89 44 24 58	 mov	 QWORD PTR tv72[rsp], rax
  0008a	eb 15		 jmp	 SHORT $LN4@operator
$LN3@operator:
  0008c	0f b6 05 00 00
	00 00		 movzx	 eax, BYTE PTR ?greater@strong_ordering@std@@2U12@B ; std::strong_ordering::greater
  00093	88 44 24 51	 mov	 BYTE PTR $T9[rsp], al
  00097	48 8d 44 24 51	 lea	 rax, QWORD PTR $T9[rsp]
  0009c	48 89 44 24 58	 mov	 QWORD PTR tv72[rsp], rax
$LN4@operator:
  000a1	48 8b 44 24 58	 mov	 rax, QWORD PTR tv72[rsp]
  000a6	48 89 44 24 48	 mov	 QWORD PTR $T7[rsp], rax
  000ab	48 8b 44 24 48	 mov	 rax, QWORD PTR $T7[rsp]
  000b0	0f b6 00	 movzx	 eax, BYTE PTR [rax]
  000b3	88 44 24 41	 mov	 BYTE PTR $T6[rsp], al
  000b7	0f b6 44 24 41	 movzx	 eax, BYTE PTR $T6[rsp]
  000bc	88 44 24 52	 mov	 BYTE PTR $T10[rsp], al
$LN6@operator:
  000c0	0f b6 44 24 52	 movzx	 eax, BYTE PTR $T10[rsp]
; Line 416
  000c5	48 83 c4 60	 add	 rsp, 96			; 00000060H
  000c9	5f		 pop	 rdi
  000ca	c3		 ret	 0
??$?__M_JU?$ratio@$00$0DLJKMKAA@@std@@_JU01@@chrono@std@@YA?A_PAEBV?$duration@_JU?$ratio@$00$0DLJKMKAA@@std@@@01@0@Z ENDP ; std::chrono::operator<=><__int64,std::ratio<1,1000000000>,__int64,std::ratio<1,1000000000> >
_TEXT	ENDS
; Function compile flags: /Odtp /RTCsu
;	COMDAT ??$?GUsteady_clock@chrono@std@@V?$duration@_JU?$ratio@$00$0DLJKMKAA@@std@@@12@_JU?$ratio@$00$0DOI@@2@@chrono@std@@YA?AV?$time_point@Usteady_clock@chrono@std@@V?$duration@_JU?$ratio@$00$0DLJKMKAA@@std@@@23@@01@AEBV201@AEBV?$duration@_JU?$ratio@$00$0DOI@@std@@@01@@Z
_TEXT	SEGMENT
$T1 = 32
$T2 = 40
__$ReturnUdt$ = 64
_Left$ = 72
_Right$ = 80
??$?GUsteady_clock@chrono@std@@V?$duration@_JU?$ratio@$00$0DLJKMKAA@@std@@@12@_JU?$ratio@$00$0DOI@@2@@chrono@std@@YA?AV?$time_point@Usteady_clock@chrono@std@@V?$duration@_JU?$ratio@$00$0DLJKMKAA@@std@@@23@@01@AEBV201@AEBV?$duration@_JU?$ratio@$00$0DOI@@std@@@01@@Z PROC ; std::chrono::operator-<std::chrono::steady_clock,std::chrono::duration<__int64,std::ratio<1,1000000000> >,__int64,std::ratio<1,1000> >, COMDAT
; File C:\Program Files\Microsoft Visual Studio\2022\Community\VC\Tools\MSVC\14.38.33130\include\__msvc_chrono.hpp
; Line 540
$LN3:
  00000	4c 89 44 24 18	 mov	 QWORD PTR [rsp+24], r8
  00005	48 89 54 24 10	 mov	 QWORD PTR [rsp+16], rdx
  0000a	48 89 4c 24 08	 mov	 QWORD PTR [rsp+8], rcx
  0000f	57		 push	 rdi
  00010	48 83 ec 30	 sub	 rsp, 48			; 00000030H
; Line 542
  00014	48 8d 54 24 20	 lea	 rdx, QWORD PTR $T1[rsp]
  00019	48 8b 4c 24 48	 mov	 rcx, QWORD PTR _Left$[rsp]
  0001e	e8 00 00 00 00	 call	 ?time_since_epoch@?$time_point@Usteady_clock@chrono@std@@V?$duration@_JU?$ratio@$00$0DLJKMKAA@@std@@@23@@chrono@std@@QEBA?AV?$duration@_JU?$ratio@$00$0DLJKMKAA@@std@@@23@XZ ; std::chrono::time_point<std::chrono::steady_clock,std::chrono::duration<__int64,std::ratio<1,1000000000> > >::time_since_epoch
  00023	4c 8b 44 24 50	 mov	 r8, QWORD PTR _Right$[rsp]
  00028	48 8b d0	 mov	 rdx, rax
  0002b	48 8d 4c 24 28	 lea	 rcx, QWORD PTR $T2[rsp]
  00030	e8 00 00 00 00	 call	 ??$?G_JU?$ratio@$00$0DLJKMKAA@@std@@_JU?$ratio@$00$0DOI@@1@@chrono@std@@YA?AV?$duration@_JU?$ratio@$00$0DLJKMKAA@@std@@@01@AEBV201@AEBV?$duration@_JU?$ratio@$00$0DOI@@std@@@01@@Z ; std::chrono::operator-<__int64,std::ratio<1,1000000000>,__int64,std::ratio<1,1000> >
  00035	48 8b d0	 mov	 rdx, rax
  00038	48 8b 4c 24 40	 mov	 rcx, QWORD PTR __$ReturnUdt$[rsp]
  0003d	e8 00 00 00 00	 call	 ??0?$time_point@Usteady_clock@chrono@std@@V?$duration@_JU?$ratio@$00$0DLJKMKAA@@std@@@23@@chrono@std@@QEAA@AEBV?$duration@_JU?$ratio@$00$0DLJKMKAA@@std@@@12@@Z ; std::chrono::time_point<std::chrono::steady_clock,std::chrono::duration<__int64,std::ratio<1,1000000000> > >::time_point<std::chrono::steady_clock,std::chrono::duration<__int64,std::ratio<1,1000000000> > >
  00042	48 8b 44 24 40	 mov	 rax, QWORD PTR __$ReturnUdt$[rsp]
; Line 543
  00047	48 83 c4 30	 add	 rsp, 48			; 00000030H
  0004b	5f		 pop	 rdi
  0004c	c3		 ret	 0
??$?GUsteady_clock@chrono@std@@V?$duration@_JU?$ratio@$00$0DLJKMKAA@@std@@@12@_JU?$ratio@$00$0DOI@@2@@chrono@std@@YA?AV?$time_point@Usteady_clock@chrono@std@@V?$duration@_JU?$ratio@$00$0DLJKMKAA@@std@@@23@@01@AEBV201@AEBV?$duration@_JU?$ratio@$00$0DOI@@std@@@01@@Z ENDP ; std::chrono::operator-<std::chrono::steady_clock,std::chrono::duration<__int64,std::ratio<1,1000000000> >,__int64,std::ratio<1,1000> >
_TEXT	ENDS
; Function compile flags: /Odtp /RTCsu
;	COMDAT ??$?__M_JU?$ratio@$00$0DOI@@std@@_JU01@@chrono@std@@YA?A_PAEBV?$duration@_JU?$ratio@$00$0DOI@@std@@@01@0@Z
_TEXT	SEGMENT
$T1 = 32
$T2 = 40
$T3 = 48
$T4 = 56
$T5 = 64
$T6 = 65
$T7 = 72
$T8 = 80
$T9 = 81
$T10 = 82
tv72 = 88
_Left$ = 112
_Right$ = 120
??$?__M_JU?$ratio@$00$0DOI@@std@@_JU01@@chrono@std@@YA?A_PAEBV?$duration@_JU?$ratio@$00$0DOI@@std@@@01@0@Z PROC ; std::chrono::operator<=><__int64,std::ratio<1,1000>,__int64,std::ratio<1,1000> >, COMDAT
; File C:\Program Files\Microsoft Visual Studio\2022\Community\VC\Tools\MSVC\14.38.33130\include\__msvc_chrono.hpp
; Line 413
$LN7:
  00000	48 89 54 24 10	 mov	 QWORD PTR [rsp+16], rdx
  00005	48 89 4c 24 08	 mov	 QWORD PTR [rsp+8], rcx
  0000a	57		 push	 rdi
  0000b	48 83 ec 60	 sub	 rsp, 96			; 00000060H
; Line 415
  0000f	48 8b 44 24 70	 mov	 rax, QWORD PTR _Left$[rsp]
  00014	48 8b 00	 mov	 rax, QWORD PTR [rax]
  00017	48 89 44 24 28	 mov	 QWORD PTR $T2[rsp], rax
  0001c	48 8d 4c 24 28	 lea	 rcx, QWORD PTR $T2[rsp]
  00021	e8 00 00 00 00	 call	 ?count@?$duration@_JU?$ratio@$00$0DOI@@std@@@chrono@std@@QEBA_JXZ ; std::chrono::duration<__int64,std::ratio<1,1000> >::count
  00026	48 89 44 24 20	 mov	 QWORD PTR $T1[rsp], rax
  0002b	48 8b 44 24 78	 mov	 rax, QWORD PTR _Right$[rsp]
  00030	48 8b 00	 mov	 rax, QWORD PTR [rax]
  00033	48 89 44 24 38	 mov	 QWORD PTR $T4[rsp], rax
  00038	48 8d 4c 24 38	 lea	 rcx, QWORD PTR $T4[rsp]
  0003d	e8 00 00 00 00	 call	 ?count@?$duration@_JU?$ratio@$00$0DOI@@std@@@chrono@std@@QEBA_JXZ ; std::chrono::duration<__int64,std::ratio<1,1000> >::count
  00042	48 89 44 24 30	 mov	 QWORD PTR $T3[rsp], rax
  00047	48 8b 44 24 30	 mov	 rax, QWORD PTR $T3[rsp]
  0004c	48 39 44 24 20	 cmp	 QWORD PTR $T1[rsp], rax
  00051	75 16		 jne	 SHORT $LN5@operator
  00053	0f b6 05 00 00
	00 00		 movzx	 eax, BYTE PTR ?equal@strong_ordering@std@@2U12@B ; std::strong_ordering::equal
  0005a	88 44 24 40	 mov	 BYTE PTR $T5[rsp], al
  0005e	0f b6 44 24 40	 movzx	 eax, BYTE PTR $T5[rsp]
  00063	88 44 24 52	 mov	 BYTE PTR $T10[rsp], al
  00067	eb 57		 jmp	 SHORT $LN6@operator
$LN5@operator:
  00069	48 8b 44 24 30	 mov	 rax, QWORD PTR $T3[rsp]
  0006e	48 39 44 24 20	 cmp	 QWORD PTR $T1[rsp], rax
  00073	7d 17		 jge	 SHORT $LN3@operator
  00075	0f b6 05 00 00
	00 00		 movzx	 eax, BYTE PTR ?less@strong_ordering@std@@2U12@B ; std::strong_ordering::less
  0007c	88 44 24 50	 mov	 BYTE PTR $T8[rsp], al
  00080	48 8d 44 24 50	 lea	 rax, QWORD PTR $T8[rsp]
  00085	48 89 44 24 58	 mov	 QWORD PTR tv72[rsp], rax
  0008a	eb 15		 jmp	 SHORT $LN4@operator
$LN3@operator:
  0008c	0f b6 05 00 00
	00 00		 movzx	 eax, BYTE PTR ?greater@strong_ordering@std@@2U12@B ; std::strong_ordering::greater
  00093	88 44 24 51	 mov	 BYTE PTR $T9[rsp], al
  00097	48 8d 44 24 51	 lea	 rax, QWORD PTR $T9[rsp]
  0009c	48 89 44 24 58	 mov	 QWORD PTR tv72[rsp], rax
$LN4@operator:
  000a1	48 8b 44 24 58	 mov	 rax, QWORD PTR tv72[rsp]
  000a6	48 89 44 24 48	 mov	 QWORD PTR $T7[rsp], rax
  000ab	48 8b 44 24 48	 mov	 rax, QWORD PTR $T7[rsp]
  000b0	0f b6 00	 movzx	 eax, BYTE PTR [rax]
  000b3	88 44 24 41	 mov	 BYTE PTR $T6[rsp], al
  000b7	0f b6 44 24 41	 movzx	 eax, BYTE PTR $T6[rsp]
  000bc	88 44 24 52	 mov	 BYTE PTR $T10[rsp], al
$LN6@operator:
  000c0	0f b6 44 24 52	 movzx	 eax, BYTE PTR $T10[rsp]
; Line 416
  000c5	48 83 c4 60	 add	 rsp, 96			; 00000060H
  000c9	5f		 pop	 rdi
  000ca	c3		 ret	 0
??$?__M_JU?$ratio@$00$0DOI@@std@@_JU01@@chrono@std@@YA?A_PAEBV?$duration@_JU?$ratio@$00$0DOI@@std@@@01@0@Z ENDP ; std::chrono::operator<=><__int64,std::ratio<1,1000>,__int64,std::ratio<1,1000> >
_TEXT	ENDS
; Function compile flags: /Odtp /RTCsu
;	COMDAT ??$_To_absolute_time@_JU?$ratio@$00$0DOI@@std@@@std@@YA?A_PAEBV?$duration@_JU?$ratio@$00$0DOI@@std@@@chrono@0@@Z
_TEXT	SEGMENT
_Zero$ = 40
_Now$ = 72
_Forever$7 = 136
$T8 = 148
$T9 = 149
$T10 = 150
$T11 = 151
$T12 = 152
$T13 = 153
$T14 = 154
$T15 = 160
$T16 = 168
$T17 = 169
$T18 = 170
$T19 = 176
__$ReturnUdt$ = 208
_Rel_time$ = 216
??$_To_absolute_time@_JU?$ratio@$00$0DOI@@std@@@std@@YA?A_PAEBV?$duration@_JU?$ratio@$00$0DOI@@std@@@chrono@0@@Z PROC ; std::_To_absolute_time<__int64,std::ratio<1,1000> >, COMDAT
; File C:\Program Files\Microsoft Visual Studio\2022\Community\VC\Tools\MSVC\14.38.33130\include\thread
; Line 167
$LN6:
  00000	48 89 54 24 10	 mov	 QWORD PTR [rsp+16], rdx
  00005	48 89 4c 24 08	 mov	 QWORD PTR [rsp+8], rcx
  0000a	57		 push	 rdi
  0000b	48 81 ec c0 00
	00 00		 sub	 rsp, 192		; 000000c0H
  00012	48 8d 7c 24 20	 lea	 rdi, QWORD PTR [rsp+32]
  00017	b9 28 00 00 00	 mov	 ecx, 40			; 00000028H
  0001c	b8 cc cc cc cc	 mov	 eax, -858993460		; ccccccccH
  00021	f3 ab		 rep stosd
  00023	48 8b 8c 24 d0
	00 00 00	 mov	 rcx, QWORD PTR [rsp+208]
; Line 168
  0002b	48 c7 44 24 28
	00 00 00 00	 mov	 QWORD PTR _Zero$[rsp], 0
; Line 169
  00034	48 8d 4c 24 48	 lea	 rcx, QWORD PTR _Now$[rsp]
  00039	e8 00 00 00 00	 call	 ?now@steady_clock@chrono@std@@SA?AV?$time_point@Usteady_clock@chrono@std@@V?$duration@_JU?$ratio@$00$0DLJKMKAA@@std@@@23@@23@XZ ; std::chrono::steady_clock::now
; Line 170
  0003e	48 8b 84 24 d0
	00 00 00	 mov	 rax, QWORD PTR __$ReturnUdt$[rsp]
  00046	48 8b 4c 24 48	 mov	 rcx, QWORD PTR _Now$[rsp]
  0004b	48 89 08	 mov	 QWORD PTR [rax], rcx
; Line 171
  0004e	48 8d 84 24 94
	00 00 00	 lea	 rax, QWORD PTR $T8[rsp]
  00056	48 8b f8	 mov	 rdi, rax
  00059	33 c0		 xor	 eax, eax
  0005b	b9 01 00 00 00	 mov	 ecx, 1
  00060	f3 aa		 rep stosb
  00062	0f b6 84 24 94
	00 00 00	 movzx	 eax, BYTE PTR $T8[rsp]
  0006a	88 84 24 96 00
	00 00		 mov	 BYTE PTR $T10[rsp], al
  00071	0f b6 84 24 96
	00 00 00	 movzx	 eax, BYTE PTR $T10[rsp]
  00079	88 84 24 98 00
	00 00		 mov	 BYTE PTR $T12[rsp], al
  00080	48 8d 54 24 28	 lea	 rdx, QWORD PTR _Zero$[rsp]
  00085	48 8b 8c 24 d8
	00 00 00	 mov	 rcx, QWORD PTR _Rel_time$[rsp]
  0008d	e8 00 00 00 00	 call	 ??$?__M_JU?$ratio@$00$0DOI@@std@@_JU01@@chrono@std@@YA?A_PAEBV?$duration@_JU?$ratio@$00$0DOI@@std@@@01@0@Z ; std::chrono::operator<=><__int64,std::ratio<1,1000>,__int64,std::ratio<1,1000> >
  00092	88 84 24 95 00
	00 00		 mov	 BYTE PTR $T9[rsp], al
  00099	0f b6 84 24 95
	00 00 00	 movzx	 eax, BYTE PTR $T9[rsp]
  000a1	88 84 24 97 00
	00 00		 mov	 BYTE PTR $T11[rsp], al
  000a8	0f b6 94 24 98
	00 00 00	 movzx	 edx, BYTE PTR $T12[rsp]
  000b0	0f b6 8c 24 97
	00 00 00	 movzx	 ecx, BYTE PTR $T11[rsp]
  000b8	e8 00 00 00 00	 call	 ??Ostd@@YA_NUstrong_ordering@0@U_Literal_zero@0@@Z ; std::operator>
  000bd	0f b6 c0	 movzx	 eax, al
  000c0	85 c0		 test	 eax, eax
  000c2	0f 84 e2 00 00
	00		 je	 $LN2@To_absolut
; Line 172
  000c8	48 b8 ff ff ff
	ff ff ff ff 7f	 mov	 rax, 9223372036854775807 ; 7fffffffffffffffH
  000d2	48 89 84 24 88
	00 00 00	 mov	 QWORD PTR _Forever$7[rsp], rax
; Line 173
  000da	48 8d 84 24 99
	00 00 00	 lea	 rax, QWORD PTR $T13[rsp]
  000e2	48 8b f8	 mov	 rdi, rax
  000e5	33 c0		 xor	 eax, eax
  000e7	b9 01 00 00 00	 mov	 ecx, 1
  000ec	f3 aa		 rep stosb
  000ee	0f b6 84 24 99
	00 00 00	 movzx	 eax, BYTE PTR $T13[rsp]
  000f6	88 84 24 a8 00
	00 00		 mov	 BYTE PTR $T16[rsp], al
  000fd	0f b6 84 24 a8
	00 00 00	 movzx	 eax, BYTE PTR $T16[rsp]
  00105	88 84 24 aa 00
	00 00		 mov	 BYTE PTR $T18[rsp], al
  0010c	4c 8b 84 24 d8
	00 00 00	 mov	 r8, QWORD PTR _Rel_time$[rsp]
  00114	48 8d 94 24 88
	00 00 00	 lea	 rdx, QWORD PTR _Forever$7[rsp]
  0011c	48 8d 8c 24 a0
	00 00 00	 lea	 rcx, QWORD PTR $T15[rsp]
  00124	e8 00 00 00 00	 call	 ??$?GUsteady_clock@chrono@std@@V?$duration@_JU?$ratio@$00$0DLJKMKAA@@std@@@12@_JU?$ratio@$00$0DOI@@2@@chrono@std@@YA?AV?$time_point@Usteady_clock@chrono@std@@V?$duration@_JU?$ratio@$00$0DLJKMKAA@@std@@@23@@01@AEBV201@AEBV?$duration@_JU?$ratio@$00$0DOI@@std@@@01@@Z ; std::chrono::operator-<std::chrono::steady_clock,std::chrono::duration<__int64,std::ratio<1,1000000000> >,__int64,std::ratio<1,1000> >
  00129	48 8b d0	 mov	 rdx, rax
  0012c	48 8b 8c 24 d0
	00 00 00	 mov	 rcx, QWORD PTR __$ReturnUdt$[rsp]
  00134	e8 00 00 00 00	 call	 ??$?__MUsteady_clock@chrono@std@@V?$duration@_JU?$ratio@$00$0DLJKMKAA@@std@@@12@V312@@chrono@std@@YA?A_PAEBV?$time_point@Usteady_clock@chrono@std@@V?$duration@_JU?$ratio@$00$0DLJKMKAA@@std@@@23@@01@0@Z ; std::chrono::operator<=><std::chrono::steady_clock,std::chrono::duration<__int64,std::ratio<1,1000000000> >,std::chrono::duration<__int64,std::ratio<1,1000000000> > >
  00139	88 84 24 9a 00
	00 00		 mov	 BYTE PTR $T14[rsp], al
  00140	0f b6 84 24 9a
	00 00 00	 movzx	 eax, BYTE PTR $T14[rsp]
  00148	88 84 24 a9 00
	00 00		 mov	 BYTE PTR $T17[rsp], al
  0014f	0f b6 94 24 aa
	00 00 00	 movzx	 edx, BYTE PTR $T18[rsp]
  00157	0f b6 8c 24 a9
	00 00 00	 movzx	 ecx, BYTE PTR $T17[rsp]
  0015f	e8 00 00 00 00	 call	 ??Mstd@@YA_NUstrong_ordering@0@U_Literal_zero@0@@Z ; std::operator<
  00164	0f b6 c0	 movzx	 eax, al
  00167	85 c0		 test	 eax, eax
  00169	74 2c		 je	 SHORT $LN3@To_absolut
; Line 174
  0016b	48 8b 94 24 d8
	00 00 00	 mov	 rdx, QWORD PTR _Rel_time$[rsp]
  00173	48 8d 8c 24 b0
	00 00 00	 lea	 rcx, QWORD PTR $T19[rsp]
  0017b	e8 00 00 00 00	 call	 ??$?0_JU?$ratio@$00$0DOI@@std@@$0A@@?$duration@_JU?$ratio@$00$0DLJKMKAA@@std@@@chrono@std@@QEAA@AEBV?$duration@_JU?$ratio@$00$0DOI@@std@@@12@@Z ; std::chrono::duration<__int64,std::ratio<1,1000000000> >::duration<__int64,std::ratio<1,1000000000> ><__int64,std::ratio<1,1000>,0>
  00180	48 8d 94 24 b0
	00 00 00	 lea	 rdx, QWORD PTR $T19[rsp]
  00188	48 8b 8c 24 d0
	00 00 00	 mov	 rcx, QWORD PTR __$ReturnUdt$[rsp]
  00190	e8 00 00 00 00	 call	 ??Y?$time_point@Usteady_clock@chrono@std@@V?$duration@_JU?$ratio@$00$0DLJKMKAA@@std@@@23@@chrono@std@@QEAAAEAV012@AEBV?$duration@_JU?$ratio@$00$0DLJKMKAA@@std@@@12@@Z ; std::chrono::time_point<std::chrono::steady_clock,std::chrono::duration<__int64,std::ratio<1,1000000000> > >::operator+=
; Line 175
  00195	eb 13		 jmp	 SHORT $LN2@To_absolut
$LN3@To_absolut:
; Line 176
  00197	48 8b 84 24 d0
	00 00 00	 mov	 rax, QWORD PTR __$ReturnUdt$[rsp]
  0019f	48 8b 8c 24 88
	00 00 00	 mov	 rcx, QWORD PTR _Forever$7[rsp]
  001a7	48 89 08	 mov	 QWORD PTR [rax], rcx
$LN2@To_absolut:
; Line 179
  001aa	48 8b 84 24 d0
	00 00 00	 mov	 rax, QWORD PTR __$ReturnUdt$[rsp]
; Line 180
  001b2	48 8b f8	 mov	 rdi, rax
  001b5	48 8b cc	 mov	 rcx, rsp
  001b8	48 8d 15 00 00
	00 00		 lea	 rdx, OFFSET FLAT:??$_To_absolute_time@_JU?$ratio@$00$0DOI@@std@@@std@@YA?A_PAEBV?$duration@_JU?$ratio@$00$0DOI@@std@@@chrono@0@@Z$rtcFrameData
  001bf	e8 00 00 00 00	 call	 _RTC_CheckStackVars
  001c4	48 8b c7	 mov	 rax, rdi
  001c7	48 81 c4 c0 00
	00 00		 add	 rsp, 192		; 000000c0H
  001ce	5f		 pop	 rdi
  001cf	c3		 ret	 0
??$_To_absolute_time@_JU?$ratio@$00$0DOI@@std@@@std@@YA?A_PAEBV?$duration@_JU?$ratio@$00$0DOI@@std@@@chrono@0@@Z ENDP ; std::_To_absolute_time<__int64,std::ratio<1,1000> >
_TEXT	ENDS
; Function compile flags: /Odtp /RTCsu
;	COMDAT ??Bsentry@?$basic_ostream@DU?$char_traits@D@std@@@std@@QEBA_NXZ
_TEXT	SEGMENT
this$ = 16
??Bsentry@?$basic_ostream@DU?$char_traits@D@std@@@std@@QEBA_NXZ PROC ; std::basic_ostream<char,std::char_traits<char> >::sentry::operator bool, COMDAT
; File C:\Program Files\Microsoft Visual Studio\2022\Community\VC\Tools\MSVC\14.38.33130\include\ostream
; Line 128
$LN3:
  00000	48 89 4c 24 08	 mov	 QWORD PTR [rsp+8], rcx
  00005	57		 push	 rdi
; Line 129
  00006	48 8b 44 24 10	 mov	 rax, QWORD PTR this$[rsp]
  0000b	0f b6 40 08	 movzx	 eax, BYTE PTR [rax+8]
; Line 130
  0000f	5f		 pop	 rdi
  00010	c3		 ret	 0
??Bsentry@?$basic_ostream@DU?$char_traits@D@std@@@std@@QEBA_NXZ ENDP ; std::basic_ostream<char,std::char_traits<char> >::sentry::operator bool
_TEXT	ENDS
; Function compile flags: /Odtp /RTCsu
;	COMDAT ??1sentry@?$basic_ostream@DU?$char_traits@D@std@@@std@@QEAA@XZ
_TEXT	SEGMENT
_Zero_uncaught_exceptions$ = 32
tv71 = 33
this$ = 64
??1sentry@?$basic_ostream@DU?$char_traits@D@std@@@std@@QEAA@XZ PROC ; std::basic_ostream<char,std::char_traits<char> >::sentry::~sentry, COMDAT
; File C:\Program Files\Microsoft Visual Studio\2022\Community\VC\Tools\MSVC\14.38.33130\include\ostream
; Line 113
$LN6:
  00000	48 89 4c 24 08	 mov	 QWORD PTR [rsp+8], rcx
  00005	57		 push	 rdi
  00006	48 83 ec 30	 sub	 rsp, 48			; 00000030H
; Line 119
  0000a	e8 00 00 00 00	 call	 ?uncaught_exceptions@std@@YAHXZ ; std::uncaught_exceptions
  0000f	85 c0		 test	 eax, eax
  00011	75 07		 jne	 SHORT $LN4@sentry
  00013	c6 44 24 21 01	 mov	 BYTE PTR tv71[rsp], 1
  00018	eb 05		 jmp	 SHORT $LN5@sentry
$LN4@sentry:
  0001a	c6 44 24 21 00	 mov	 BYTE PTR tv71[rsp], 0
$LN5@sentry:
  0001f	0f b6 44 24 21	 movzx	 eax, BYTE PTR tv71[rsp]
  00024	88 44 24 20	 mov	 BYTE PTR _Zero_uncaught_exceptions$[rsp], al
; Line 122
  00028	0f b6 44 24 20	 movzx	 eax, BYTE PTR _Zero_uncaught_exceptions$[rsp]
  0002d	85 c0		 test	 eax, eax
  0002f	74 0e		 je	 SHORT $LN2@sentry
; Line 123
  00031	48 8b 44 24 40	 mov	 rax, QWORD PTR this$[rsp]
  00036	48 8b 08	 mov	 rcx, QWORD PTR [rax]
  00039	ff 15 00 00 00
	00		 call	 QWORD PTR __imp_?_Osfx@?$basic_ostream@DU?$char_traits@D@std@@@std@@QEAAXXZ
$LN2@sentry:
; Line 125
  0003f	48 8b 4c 24 40	 mov	 rcx, QWORD PTR this$[rsp]
  00044	e8 00 00 00 00	 call	 ??1_Sentry_base@?$basic_ostream@DU?$char_traits@D@std@@@std@@QEAA@XZ ; std::basic_ostream<char,std::char_traits<char> >::_Sentry_base::~_Sentry_base
  00049	48 83 c4 30	 add	 rsp, 48			; 00000030H
  0004d	5f		 pop	 rdi
  0004e	c3		 ret	 0
??1sentry@?$basic_ostream@DU?$char_traits@D@std@@@std@@QEAA@XZ ENDP ; std::basic_ostream<char,std::char_traits<char> >::sentry::~sentry
_TEXT	ENDS
; Function compile flags: /Odtp /RTCsu
;	COMDAT ??0sentry@?$basic_ostream@DU?$char_traits@D@std@@@std@@QEAA@AEAV12@@Z
_TEXT	SEGMENT
_Tied$ = 32
this$ = 64
_Ostr$ = 72
??0sentry@?$basic_ostream@DU?$char_traits@D@std@@@std@@QEAA@AEAV12@@Z PROC ; std::basic_ostream<char,std::char_traits<char> >::sentry::sentry, COMDAT
; File C:\Program Files\Microsoft Visual Studio\2022\Community\VC\Tools\MSVC\14.38.33130\include\ostream
; Line 96
$LN7:
  00000	48 89 54 24 10	 mov	 QWORD PTR [rsp+16], rdx
  00005	48 89 4c 24 08	 mov	 QWORD PTR [rsp+8], rcx
  0000a	57		 push	 rdi
  0000b	48 83 ec 30	 sub	 rsp, 48			; 00000030H
  0000f	48 8b 54 24 48	 mov	 rdx, QWORD PTR _Ostr$[rsp]
  00014	48 8b 4c 24 40	 mov	 rcx, QWORD PTR this$[rsp]
  00019	e8 00 00 00 00	 call	 ??0_Sentry_base@?$basic_ostream@DU?$char_traits@D@std@@@std@@QEAA@AEAV12@@Z ; std::basic_ostream<char,std::char_traits<char> >::_Sentry_base::_Sentry_base
  0001e	90		 npad	 1
; Line 97
  0001f	48 8b 44 24 48	 mov	 rax, QWORD PTR _Ostr$[rsp]
  00024	48 8b 00	 mov	 rax, QWORD PTR [rax]
  00027	48 63 40 04	 movsxd	 rax, DWORD PTR [rax+4]
  0002b	48 8b 4c 24 48	 mov	 rcx, QWORD PTR _Ostr$[rsp]
  00030	48 03 c8	 add	 rcx, rax
  00033	48 8b c1	 mov	 rax, rcx
  00036	48 8b c8	 mov	 rcx, rax
  00039	ff 15 00 00 00
	00		 call	 QWORD PTR __imp_?good@ios_base@std@@QEBA_NXZ
  0003f	0f b6 c0	 movzx	 eax, al
  00042	85 c0		 test	 eax, eax
  00044	75 0b		 jne	 SHORT $LN2@sentry
; Line 98
  00046	48 8b 44 24 40	 mov	 rax, QWORD PTR this$[rsp]
  0004b	c6 40 08 00	 mov	 BYTE PTR [rax+8], 0
; Line 99
  0004f	eb 77		 jmp	 SHORT $LN1@sentry
$LN2@sentry:
; Line 102
  00051	48 8b 44 24 48	 mov	 rax, QWORD PTR _Ostr$[rsp]
  00056	48 8b 00	 mov	 rax, QWORD PTR [rax]
  00059	48 63 40 04	 movsxd	 rax, DWORD PTR [rax+4]
  0005d	48 8b 4c 24 48	 mov	 rcx, QWORD PTR _Ostr$[rsp]
  00062	48 03 c8	 add	 rcx, rax
  00065	48 8b c1	 mov	 rax, rcx
  00068	48 8b c8	 mov	 rcx, rax
  0006b	ff 15 00 00 00
	00		 call	 QWORD PTR __imp_?tie@?$basic_ios@DU?$char_traits@D@std@@@std@@QEBAPEAV?$basic_ostream@DU?$char_traits@D@std@@@2@XZ
  00071	48 89 44 24 20	 mov	 QWORD PTR _Tied$[rsp], rax
; Line 103
  00076	48 83 7c 24 20
	00		 cmp	 QWORD PTR _Tied$[rsp], 0
  0007c	74 0c		 je	 SHORT $LN4@sentry
  0007e	48 8b 44 24 48	 mov	 rax, QWORD PTR _Ostr$[rsp]
  00083	48 39 44 24 20	 cmp	 QWORD PTR _Tied$[rsp], rax
  00088	75 0b		 jne	 SHORT $LN3@sentry
$LN4@sentry:
; Line 104
  0008a	48 8b 44 24 40	 mov	 rax, QWORD PTR this$[rsp]
  0008f	c6 40 08 01	 mov	 BYTE PTR [rax+8], 1
; Line 105
  00093	eb 33		 jmp	 SHORT $LN1@sentry
$LN3@sentry:
; Line 108
  00095	48 8b 4c 24 20	 mov	 rcx, QWORD PTR _Tied$[rsp]
  0009a	ff 15 00 00 00
	00		 call	 QWORD PTR __imp_?flush@?$basic_ostream@DU?$char_traits@D@std@@@std@@QEAAAEAV12@XZ
; Line 109
  000a0	48 8b 44 24 48	 mov	 rax, QWORD PTR _Ostr$[rsp]
  000a5	48 8b 00	 mov	 rax, QWORD PTR [rax]
  000a8	48 63 40 04	 movsxd	 rax, DWORD PTR [rax+4]
  000ac	48 8b 4c 24 48	 mov	 rcx, QWORD PTR _Ostr$[rsp]
  000b1	48 03 c8	 add	 rcx, rax
  000b4	48 8b c1	 mov	 rax, rcx
  000b7	48 8b c8	 mov	 rcx, rax
  000ba	ff 15 00 00 00
	00		 call	 QWORD PTR __imp_?good@ios_base@std@@QEBA_NXZ
  000c0	48 8b 4c 24 40	 mov	 rcx, QWORD PTR this$[rsp]
  000c5	88 41 08	 mov	 BYTE PTR [rcx+8], al
$LN1@sentry:
; Line 110
  000c8	48 8b 44 24 40	 mov	 rax, QWORD PTR this$[rsp]
  000cd	48 83 c4 30	 add	 rsp, 48			; 00000030H
  000d1	5f		 pop	 rdi
  000d2	c3		 ret	 0
??0sentry@?$basic_ostream@DU?$char_traits@D@std@@@std@@QEAA@AEAV12@@Z ENDP ; std::basic_ostream<char,std::char_traits<char> >::sentry::sentry
_TEXT	ENDS
; Function compile flags: /Odtp /RTCsu
;	COMDAT text$x
text$x	SEGMENT
_Tied$ = 32
this$ = 64
_Ostr$ = 72
?dtor$0@?0???0sentry@?$basic_ostream@DU?$char_traits@D@std@@@std@@QEAA@AEAV12@@Z@4HA PROC ; `std::basic_ostream<char,std::char_traits<char> >::sentry::sentry'::`1'::dtor$0
  00000	48 89 4c 24 08	 mov	 QWORD PTR [rsp+8], rcx
  00005	48 89 54 24 10	 mov	 QWORD PTR [rsp+16], rdx
  0000a	55		 push	 rbp
  0000b	57		 push	 rdi
  0000c	48 83 ec 28	 sub	 rsp, 40			; 00000028H
  00010	48 8b ea	 mov	 rbp, rdx
  00013	48 8b 4d 40	 mov	 rcx, QWORD PTR this$[rbp]
  00017	e8 00 00 00 00	 call	 ??1_Sentry_base@?$basic_ostream@DU?$char_traits@D@std@@@std@@QEAA@XZ ; std::basic_ostream<char,std::char_traits<char> >::_Sentry_base::~_Sentry_base
  0001c	48 83 c4 28	 add	 rsp, 40			; 00000028H
  00020	5f		 pop	 rdi
  00021	5d		 pop	 rbp
  00022	c3		 ret	 0
?dtor$0@?0???0sentry@?$basic_ostream@DU?$char_traits@D@std@@@std@@QEAA@AEAV12@@Z@4HA ENDP ; `std::basic_ostream<char,std::char_traits<char> >::sentry::sentry'::`1'::dtor$0
text$x	ENDS
; Function compile flags: /Odtp /RTCsu
;	COMDAT ??1_Sentry_base@?$basic_ostream@DU?$char_traits@D@std@@@std@@QEAA@XZ
_TEXT	SEGMENT
_Rdbuf$ = 32
tv72 = 40
this$ = 64
??1_Sentry_base@?$basic_ostream@DU?$char_traits@D@std@@@std@@QEAA@XZ PROC ; std::basic_ostream<char,std::char_traits<char> >::_Sentry_base::~_Sentry_base, COMDAT
; File C:\Program Files\Microsoft Visual Studio\2022\Community\VC\Tools\MSVC\14.38.33130\include\ostream
; Line 82
$LN4:
  00000	48 89 4c 24 08	 mov	 QWORD PTR [rsp+8], rcx
  00005	57		 push	 rdi
  00006	48 83 ec 30	 sub	 rsp, 48			; 00000030H
; Line 83
  0000a	48 8b 44 24 40	 mov	 rax, QWORD PTR this$[rsp]
  0000f	48 8b 00	 mov	 rax, QWORD PTR [rax]
  00012	48 89 44 24 28	 mov	 QWORD PTR tv72[rsp], rax
  00017	48 8b 44 24 28	 mov	 rax, QWORD PTR tv72[rsp]
  0001c	48 8b 00	 mov	 rax, QWORD PTR [rax]
  0001f	48 63 40 04	 movsxd	 rax, DWORD PTR [rax+4]
  00023	48 8b 4c 24 28	 mov	 rcx, QWORD PTR tv72[rsp]
  00028	48 03 c8	 add	 rcx, rax
  0002b	48 8b c1	 mov	 rax, rcx
  0002e	48 8b c8	 mov	 rcx, rax
  00031	ff 15 00 00 00
	00		 call	 QWORD PTR __imp_?rdbuf@?$basic_ios@DU?$char_traits@D@std@@@std@@QEBAPEAV?$basic_streambuf@DU?$char_traits@D@std@@@2@XZ
  00037	48 89 44 24 20	 mov	 QWORD PTR _Rdbuf$[rsp], rax
; Line 84
  0003c	48 83 7c 24 20
	00		 cmp	 QWORD PTR _Rdbuf$[rsp], 0
  00042	74 11		 je	 SHORT $LN2@Sentry_bas
; Line 85
  00044	48 8b 44 24 20	 mov	 rax, QWORD PTR _Rdbuf$[rsp]
  00049	48 8b 00	 mov	 rax, QWORD PTR [rax]
  0004c	48 8b 4c 24 20	 mov	 rcx, QWORD PTR _Rdbuf$[rsp]
  00051	ff 50 10	 call	 QWORD PTR [rax+16]
  00054	90		 npad	 1
$LN2@Sentry_bas:
; Line 87
  00055	48 83 c4 30	 add	 rsp, 48			; 00000030H
  00059	5f		 pop	 rdi
  0005a	c3		 ret	 0
??1_Sentry_base@?$basic_ostream@DU?$char_traits@D@std@@@std@@QEAA@XZ ENDP ; std::basic_ostream<char,std::char_traits<char> >::_Sentry_base::~_Sentry_base
_TEXT	ENDS
; Function compile flags: /Odtp /RTCsu
;	COMDAT ??0_Sentry_base@?$basic_ostream@DU?$char_traits@D@std@@@std@@QEAA@AEAV12@@Z
_TEXT	SEGMENT
_Rdbuf$ = 32
tv73 = 40
this$ = 64
_Ostr$ = 72
??0_Sentry_base@?$basic_ostream@DU?$char_traits@D@std@@@std@@QEAA@AEAV12@@Z PROC ; std::basic_ostream<char,std::char_traits<char> >::_Sentry_base::_Sentry_base, COMDAT
; File C:\Program Files\Microsoft Visual Studio\2022\Community\VC\Tools\MSVC\14.38.33130\include\ostream
; Line 75
$LN4:
  00000	48 89 54 24 10	 mov	 QWORD PTR [rsp+16], rdx
  00005	48 89 4c 24 08	 mov	 QWORD PTR [rsp+8], rcx
  0000a	57		 push	 rdi
  0000b	48 83 ec 30	 sub	 rsp, 48			; 00000030H
  0000f	48 8b 44 24 40	 mov	 rax, QWORD PTR this$[rsp]
  00014	48 8b 4c 24 48	 mov	 rcx, QWORD PTR _Ostr$[rsp]
  00019	48 89 08	 mov	 QWORD PTR [rax], rcx
; Line 76
  0001c	48 8b 44 24 40	 mov	 rax, QWORD PTR this$[rsp]
  00021	48 8b 00	 mov	 rax, QWORD PTR [rax]
  00024	48 89 44 24 28	 mov	 QWORD PTR tv73[rsp], rax
  00029	48 8b 44 24 28	 mov	 rax, QWORD PTR tv73[rsp]
  0002e	48 8b 00	 mov	 rax, QWORD PTR [rax]
  00031	48 63 40 04	 movsxd	 rax, DWORD PTR [rax+4]
  00035	48 8b 4c 24 28	 mov	 rcx, QWORD PTR tv73[rsp]
  0003a	48 03 c8	 add	 rcx, rax
  0003d	48 8b c1	 mov	 rax, rcx
  00040	48 8b c8	 mov	 rcx, rax
  00043	ff 15 00 00 00
	00		 call	 QWORD PTR __imp_?rdbuf@?$basic_ios@DU?$char_traits@D@std@@@std@@QEBAPEAV?$basic_streambuf@DU?$char_traits@D@std@@@2@XZ
  00049	48 89 44 24 20	 mov	 QWORD PTR _Rdbuf$[rsp], rax
; Line 77
  0004e	48 83 7c 24 20
	00		 cmp	 QWORD PTR _Rdbuf$[rsp], 0
  00054	74 10		 je	 SHORT $LN2@Sentry_bas
; Line 78
  00056	48 8b 44 24 20	 mov	 rax, QWORD PTR _Rdbuf$[rsp]
  0005b	48 8b 00	 mov	 rax, QWORD PTR [rax]
  0005e	48 8b 4c 24 20	 mov	 rcx, QWORD PTR _Rdbuf$[rsp]
  00063	ff 50 08	 call	 QWORD PTR [rax+8]
$LN2@Sentry_bas:
; Line 80
  00066	48 8b 44 24 40	 mov	 rax, QWORD PTR this$[rsp]
  0006b	48 83 c4 30	 add	 rsp, 48			; 00000030H
  0006f	5f		 pop	 rdi
  00070	c3		 ret	 0
??0_Sentry_base@?$basic_ostream@DU?$char_traits@D@std@@@std@@QEAA@AEAV12@@Z ENDP ; std::basic_ostream<char,std::char_traits<char> >::_Sentry_base::_Sentry_base
_TEXT	ENDS
; Function compile flags: /Odtp /RTCsu
;	COMDAT ??$sleep_for@_JU?$ratio@$00$0DOI@@std@@@this_thread@std@@YAXAEBV?$duration@_JU?$ratio@$00$0DOI@@std@@@chrono@1@@Z
_TEXT	SEGMENT
$T1 = 32
_Rel_time$ = 64
??$sleep_for@_JU?$ratio@$00$0DOI@@std@@@this_thread@std@@YAXAEBV?$duration@_JU?$ratio@$00$0DOI@@std@@@chrono@1@@Z PROC ; std::this_thread::sleep_for<__int64,std::ratio<1,1000> >, COMDAT
; File C:\Program Files\Microsoft Visual Studio\2022\Community\VC\Tools\MSVC\14.38.33130\include\thread
; Line 207
$LN3:
  00000	48 89 4c 24 08	 mov	 QWORD PTR [rsp+8], rcx
  00005	57		 push	 rdi
  00006	48 83 ec 30	 sub	 rsp, 48			; 00000030H
; Line 208
  0000a	48 8b 54 24 40	 mov	 rdx, QWORD PTR _Rel_time$[rsp]
  0000f	48 8d 4c 24 20	 lea	 rcx, QWORD PTR $T1[rsp]
  00014	e8 00 00 00 00	 call	 ??$_To_absolute_time@_JU?$ratio@$00$0DOI@@std@@@std@@YA?A_PAEBV?$duration@_JU?$ratio@$00$0DOI@@std@@@chrono@0@@Z ; std::_To_absolute_time<__int64,std::ratio<1,1000> >
  00019	48 8b c8	 mov	 rcx, rax
  0001c	e8 00 00 00 00	 call	 ??$sleep_until@Usteady_clock@chrono@std@@V?$duration@_JU?$ratio@$00$0DLJKMKAA@@std@@@23@@this_thread@std@@YAXAEBV?$time_point@Usteady_clock@chrono@std@@V?$duration@_JU?$ratio@$00$0DLJKMKAA@@std@@@23@@chrono@1@@Z ; std::this_thread::sleep_until<std::chrono::steady_clock,std::chrono::duration<__int64,std::ratio<1,1000000000> > >
; Line 209
  00021	48 83 c4 30	 add	 rsp, 48			; 00000030H
  00025	5f		 pop	 rdi
  00026	c3		 ret	 0
??$sleep_for@_JU?$ratio@$00$0DOI@@std@@@this_thread@std@@YAXAEBV?$duration@_JU?$ratio@$00$0DOI@@std@@@chrono@1@@Z ENDP ; std::this_thread::sleep_for<__int64,std::ratio<1,1000> >
_TEXT	ENDS
; Function compile flags: /Odtp /RTCsu
;	COMDAT ??$?0H$0A@@?$duration@_JU?$ratio@$00$0DOI@@std@@@chrono@std@@QEAA@AEBH@Z
_TEXT	SEGMENT
this$ = 16
_Val$ = 24
??$?0H$0A@@?$duration@_JU?$ratio@$00$0DOI@@std@@@chrono@std@@QEAA@AEBH@Z PROC ; std::chrono::duration<__int64,std::ratio<1,1000> >::duration<__int64,std::ratio<1,1000> ><int,0>, COMDAT
; File C:\Program Files\Microsoft Visual Studio\2022\Community\VC\Tools\MSVC\14.38.33130\include\__msvc_chrono.hpp
; Line 98
$LN3:
  00000	48 89 54 24 10	 mov	 QWORD PTR [rsp+16], rdx
  00005	48 89 4c 24 08	 mov	 QWORD PTR [rsp+8], rcx
  0000a	57		 push	 rdi
  0000b	48 8b 44 24 18	 mov	 rax, QWORD PTR _Val$[rsp]
  00010	48 63 00	 movsxd	 rax, DWORD PTR [rax]
  00013	48 8b 4c 24 10	 mov	 rcx, QWORD PTR this$[rsp]
  00018	48 89 01	 mov	 QWORD PTR [rcx], rax
  0001b	48 8b 44 24 10	 mov	 rax, QWORD PTR this$[rsp]
  00020	5f		 pop	 rdi
  00021	c3		 ret	 0
??$?0H$0A@@?$duration@_JU?$ratio@$00$0DOI@@std@@@chrono@std@@QEAA@AEBH@Z ENDP ; std::chrono::duration<__int64,std::ratio<1,1000> >::duration<__int64,std::ratio<1,1000> ><int,0>
_TEXT	ENDS
; Function compile flags: /Odtp /RTCsu
;	COMDAT ??$swap@PEAVCharacter@@$0A@@std@@YAXAEAPEAVCharacter@@0@Z
_TEXT	SEGMENT
_Tmp$ = 0
_Left$ = 32
_Right$ = 40
??$swap@PEAVCharacter@@$0A@@std@@YAXAEAPEAVCharacter@@0@Z PROC ; std::swap<Character *,0>, COMDAT
; File C:\Program Files\Microsoft Visual Studio\2022\Community\VC\Tools\MSVC\14.38.33130\include\utility
; Line 128
$LN3:
  00000	48 89 54 24 10	 mov	 QWORD PTR [rsp+16], rdx
  00005	48 89 4c 24 08	 mov	 QWORD PTR [rsp+8], rcx
  0000a	57		 push	 rdi
  0000b	48 83 ec 10	 sub	 rsp, 16
; Line 129
  0000f	48 8b 44 24 20	 mov	 rax, QWORD PTR _Left$[rsp]
  00014	48 8b 00	 mov	 rax, QWORD PTR [rax]
  00017	48 89 04 24	 mov	 QWORD PTR _Tmp$[rsp], rax
; Line 130
  0001b	48 8b 44 24 20	 mov	 rax, QWORD PTR _Left$[rsp]
  00020	48 8b 4c 24 28	 mov	 rcx, QWORD PTR _Right$[rsp]
  00025	48 8b 09	 mov	 rcx, QWORD PTR [rcx]
  00028	48 89 08	 mov	 QWORD PTR [rax], rcx
; Line 131
  0002b	48 8b 44 24 28	 mov	 rax, QWORD PTR _Right$[rsp]
  00030	48 8b 0c 24	 mov	 rcx, QWORD PTR _Tmp$[rsp]
  00034	48 89 08	 mov	 QWORD PTR [rax], rcx
; Line 132
  00037	48 83 c4 10	 add	 rsp, 16
  0003b	5f		 pop	 rdi
  0003c	c3		 ret	 0
??$swap@PEAVCharacter@@$0A@@std@@YAXAEAPEAVCharacter@@0@Z ENDP ; std::swap<Character *,0>
_TEXT	ENDS
; Function compile flags: /Odtp /RTCsu
;	COMDAT ??$endl@DU?$char_traits@D@std@@@std@@YAAEAV?$basic_ostream@DU?$char_traits@D@std@@@0@AEAV10@@Z
_TEXT	SEGMENT
tv80 = 32
_Ostr$ = 64
??$endl@DU?$char_traits@D@std@@@std@@YAAEAV?$basic_ostream@DU?$char_traits@D@std@@@0@AEAV10@@Z PROC ; std::endl<char,std::char_traits<char> >, COMDAT
; File C:\Program Files\Microsoft Visual Studio\2022\Community\VC\Tools\MSVC\14.38.33130\include\ostream
; Line 1010
$LN3:
  00000	48 89 4c 24 08	 mov	 QWORD PTR [rsp+8], rcx
  00005	57		 push	 rdi
  00006	48 83 ec 30	 sub	 rsp, 48			; 00000030H
; Line 1011
  0000a	48 8b 44 24 40	 mov	 rax, QWORD PTR _Ostr$[rsp]
  0000f	48 8b 00	 mov	 rax, QWORD PTR [rax]
  00012	48 63 40 04	 movsxd	 rax, DWORD PTR [rax+4]
  00016	48 8b 4c 24 40	 mov	 rcx, QWORD PTR _Ostr$[rsp]
  0001b	48 03 c8	 add	 rcx, rax
  0001e	48 8b c1	 mov	 rax, rcx
  00021	48 89 44 24 20	 mov	 QWORD PTR tv80[rsp], rax
  00026	b2 0a		 mov	 dl, 10
  00028	48 8b 4c 24 20	 mov	 rcx, QWORD PTR tv80[rsp]
  0002d	ff 15 00 00 00
	00		 call	 QWORD PTR __imp_?widen@?$basic_ios@DU?$char_traits@D@std@@@std@@QEBADD@Z
  00033	0f b6 d0	 movzx	 edx, al
  00036	48 8b 4c 24 40	 mov	 rcx, QWORD PTR _Ostr$[rsp]
  0003b	ff 15 00 00 00
	00		 call	 QWORD PTR __imp_?put@?$basic_ostream@DU?$char_traits@D@std@@@std@@QEAAAEAV12@D@Z
; Line 1012
  00041	48 8b 4c 24 40	 mov	 rcx, QWORD PTR _Ostr$[rsp]
  00046	ff 15 00 00 00
	00		 call	 QWORD PTR __imp_?flush@?$basic_ostream@DU?$char_traits@D@std@@@std@@QEAAAEAV12@XZ
; Line 1013
  0004c	48 8b 44 24 40	 mov	 rax, QWORD PTR _Ostr$[rsp]
; Line 1014
  00051	48 83 c4 30	 add	 rsp, 48			; 00000030H
  00055	5f		 pop	 rdi
  00056	c3		 ret	 0
??$endl@DU?$char_traits@D@std@@@std@@YAAEAV?$basic_ostream@DU?$char_traits@D@std@@@0@AEAV10@@Z ENDP ; std::endl<char,std::char_traits<char> >
_TEXT	ENDS
; Function compile flags: /Odtp /RTCsu
;	COMDAT ??$?6U?$char_traits@D@std@@@std@@YAAEAV?$basic_ostream@DU?$char_traits@D@std@@@0@AEAV10@PEBD@Z
_TEXT	SEGMENT
_State$ = 32
_Count$ = 40
_Pad$ = 48
_Ok$ = 72
$T4 = 104
tv137 = 112
tv194 = 120
tv192 = 128
tv139 = 132
tv201 = 136
tv199 = 140
tv223 = 144
tv318 = 152
tv260 = 160
tv258 = 168
tv319 = 172
tv267 = 176
tv265 = 180
tv285 = 184
tv299 = 192
tv314 = 200
_Ostr$ = 224
_Val$ = 232
??$?6U?$char_traits@D@std@@@std@@YAAEAV?$basic_ostream@DU?$char_traits@D@std@@@0@AEAV10@PEBD@Z PROC ; std::operator<<<std::char_traits<char> >, COMDAT
; File C:\Program Files\Microsoft Visual Studio\2022\Community\VC\Tools\MSVC\14.38.33130\include\ostream
; Line 766
$LN25:
  00000	48 89 54 24 10	 mov	 QWORD PTR [rsp+16], rdx
  00005	48 89 4c 24 08	 mov	 QWORD PTR [rsp+8], rcx
  0000a	57		 push	 rdi
  0000b	48 81 ec d0 00
	00 00		 sub	 rsp, 208		; 000000d0H
  00012	48 8d 7c 24 20	 lea	 rdi, QWORD PTR [rsp+32]
  00017	b9 2c 00 00 00	 mov	 ecx, 44			; 0000002cH
  0001c	b8 cc cc cc cc	 mov	 eax, -858993460		; ccccccccH
  00021	f3 ab		 rep stosd
  00023	48 8b 8c 24 e0
	00 00 00	 mov	 rcx, QWORD PTR [rsp+224]
; Line 771
  0002b	c7 44 24 20 00
	00 00 00	 mov	 DWORD PTR _State$[rsp], 0
; Line 772
  00033	48 8b 8c 24 e8
	00 00 00	 mov	 rcx, QWORD PTR _Val$[rsp]
  0003b	e8 00 00 00 00	 call	 ?length@?$_Narrow_char_traits@DH@std@@SA_KQEBD@Z ; std::_Narrow_char_traits<char,int>::length
  00040	48 89 44 24 28	 mov	 QWORD PTR _Count$[rsp], rax
; Line 773
  00045	48 8b 84 24 e0
	00 00 00	 mov	 rax, QWORD PTR _Ostr$[rsp]
  0004d	48 8b 00	 mov	 rax, QWORD PTR [rax]
  00050	48 63 40 04	 movsxd	 rax, DWORD PTR [rax+4]
  00054	48 8b 8c 24 e0
	00 00 00	 mov	 rcx, QWORD PTR _Ostr$[rsp]
  0005c	48 03 c8	 add	 rcx, rax
  0005f	48 8b c1	 mov	 rax, rcx
  00062	48 8b c8	 mov	 rcx, rax
  00065	ff 15 00 00 00
	00		 call	 QWORD PTR __imp_?width@ios_base@std@@QEBA_JXZ
  0006b	48 85 c0	 test	 rax, rax
  0006e	7e 5f		 jle	 SHORT $LN17@operator
  00070	48 8b 84 24 e0
	00 00 00	 mov	 rax, QWORD PTR _Ostr$[rsp]
  00078	48 8b 00	 mov	 rax, QWORD PTR [rax]
  0007b	48 63 40 04	 movsxd	 rax, DWORD PTR [rax+4]
  0007f	48 8b 8c 24 e0
	00 00 00	 mov	 rcx, QWORD PTR _Ostr$[rsp]
  00087	48 03 c8	 add	 rcx, rax
  0008a	48 8b c1	 mov	 rax, rcx
  0008d	48 8b c8	 mov	 rcx, rax
  00090	ff 15 00 00 00
	00		 call	 QWORD PTR __imp_?width@ios_base@std@@QEBA_JXZ
  00096	48 3b 44 24 28	 cmp	 rax, QWORD PTR _Count$[rsp]
  0009b	7e 32		 jle	 SHORT $LN17@operator
  0009d	48 8b 84 24 e0
	00 00 00	 mov	 rax, QWORD PTR _Ostr$[rsp]
  000a5	48 8b 00	 mov	 rax, QWORD PTR [rax]
  000a8	48 63 40 04	 movsxd	 rax, DWORD PTR [rax+4]
  000ac	48 8b 8c 24 e0
	00 00 00	 mov	 rcx, QWORD PTR _Ostr$[rsp]
  000b4	48 03 c8	 add	 rcx, rax
  000b7	48 8b c1	 mov	 rax, rcx
  000ba	48 8b c8	 mov	 rcx, rax
  000bd	ff 15 00 00 00
	00		 call	 QWORD PTR __imp_?width@ios_base@std@@QEBA_JXZ
  000c3	48 2b 44 24 28	 sub	 rax, QWORD PTR _Count$[rsp]
  000c8	48 89 44 24 70	 mov	 QWORD PTR tv137[rsp], rax
  000cd	eb 09		 jmp	 SHORT $LN18@operator
$LN17@operator:
  000cf	48 c7 44 24 70
	00 00 00 00	 mov	 QWORD PTR tv137[rsp], 0
$LN18@operator:
  000d8	48 8b 44 24 70	 mov	 rax, QWORD PTR tv137[rsp]
  000dd	48 89 44 24 30	 mov	 QWORD PTR _Pad$[rsp], rax
; Line 774
  000e2	48 8b 94 24 e0
	00 00 00	 mov	 rdx, QWORD PTR _Ostr$[rsp]
  000ea	48 8d 4c 24 48	 lea	 rcx, QWORD PTR _Ok$[rsp]
  000ef	e8 00 00 00 00	 call	 ??0sentry@?$basic_ostream@DU?$char_traits@D@std@@@std@@QEAA@AEAV12@@Z ; std::basic_ostream<char,std::char_traits<char> >::sentry::sentry
  000f4	90		 npad	 1
; Line 776
  000f5	48 8d 4c 24 48	 lea	 rcx, QWORD PTR _Ok$[rsp]
  000fa	e8 00 00 00 00	 call	 ??Bsentry@?$basic_ostream@DU?$char_traits@D@std@@@std@@QEBA_NXZ ; std::basic_ostream<char,std::char_traits<char> >::sentry::operator bool
  000ff	0f b6 c0	 movzx	 eax, al
  00102	85 c0		 test	 eax, eax
  00104	75 10		 jne	 SHORT $LN8@operator
; Line 777
  00106	8b 44 24 20	 mov	 eax, DWORD PTR _State$[rsp]
  0010a	83 c8 04	 or	 eax, 4
  0010d	89 44 24 20	 mov	 DWORD PTR _State$[rsp], eax
; Line 778
  00111	e9 95 02 00 00	 jmp	 $LN9@operator
$LN8@operator:
; Line 780
  00116	48 8b 84 24 e0
	00 00 00	 mov	 rax, QWORD PTR _Ostr$[rsp]
  0011e	48 8b 00	 mov	 rax, QWORD PTR [rax]
  00121	48 63 40 04	 movsxd	 rax, DWORD PTR [rax+4]
  00125	48 8b 8c 24 e0
	00 00 00	 mov	 rcx, QWORD PTR _Ostr$[rsp]
  0012d	48 03 c8	 add	 rcx, rax
  00130	48 8b c1	 mov	 rax, rcx
  00133	48 8b c8	 mov	 rcx, rax
  00136	ff 15 00 00 00
	00		 call	 QWORD PTR __imp_?flags@ios_base@std@@QEBAHXZ
  0013c	25 c0 01 00 00	 and	 eax, 448		; 000001c0H
  00141	83 f8 40	 cmp	 eax, 64			; 00000040H
  00144	0f 84 d3 00 00
	00		 je	 $LN11@operator
; Line 781
  0014a	eb 0d		 jmp	 SHORT $LN4@operator
$LN2@operator:
  0014c	48 8b 44 24 30	 mov	 rax, QWORD PTR _Pad$[rsp]
  00151	48 ff c8	 dec	 rax
  00154	48 89 44 24 30	 mov	 QWORD PTR _Pad$[rsp], rax
$LN4@operator:
  00159	48 83 7c 24 30
	00		 cmp	 QWORD PTR _Pad$[rsp], 0
  0015f	0f 8e b8 00 00
	00		 jle	 $LN11@operator
; Line 782
  00165	48 8b 84 24 e0
	00 00 00	 mov	 rax, QWORD PTR _Ostr$[rsp]
  0016d	48 8b 00	 mov	 rax, QWORD PTR [rax]
  00170	48 63 40 04	 movsxd	 rax, DWORD PTR [rax+4]
  00174	48 8b 8c 24 e0
	00 00 00	 mov	 rcx, QWORD PTR _Ostr$[rsp]
  0017c	48 03 c8	 add	 rcx, rax
  0017f	48 8b c1	 mov	 rax, rcx
  00182	48 8b c8	 mov	 rcx, rax
  00185	ff 15 00 00 00
	00		 call	 QWORD PTR __imp_?rdbuf@?$basic_ios@DU?$char_traits@D@std@@@std@@QEBAPEAV?$basic_streambuf@DU?$char_traits@D@std@@@2@XZ
  0018b	48 89 44 24 78	 mov	 QWORD PTR tv194[rsp], rax
  00190	48 8b 84 24 e0
	00 00 00	 mov	 rax, QWORD PTR _Ostr$[rsp]
  00198	48 8b 00	 mov	 rax, QWORD PTR [rax]
  0019b	48 63 40 04	 movsxd	 rax, DWORD PTR [rax+4]
  0019f	48 8b 8c 24 e0
	00 00 00	 mov	 rcx, QWORD PTR _Ostr$[rsp]
  001a7	48 03 c8	 add	 rcx, rax
  001aa	48 8b c1	 mov	 rax, rcx
  001ad	48 8b c8	 mov	 rcx, rax
  001b0	ff 15 00 00 00
	00		 call	 QWORD PTR __imp_?fill@?$basic_ios@DU?$char_traits@D@std@@@std@@QEBADXZ
  001b6	88 84 24 80 00
	00 00		 mov	 BYTE PTR tv192[rsp], al
  001bd	0f b6 94 24 80
	00 00 00	 movzx	 edx, BYTE PTR tv192[rsp]
  001c5	48 8b 4c 24 78	 mov	 rcx, QWORD PTR tv194[rsp]
  001ca	ff 15 00 00 00
	00		 call	 QWORD PTR __imp_?sputc@?$basic_streambuf@DU?$char_traits@D@std@@@std@@QEAAHD@Z
  001d0	89 84 24 84 00
	00 00		 mov	 DWORD PTR tv139[rsp], eax
  001d7	8b 84 24 84 00
	00 00		 mov	 eax, DWORD PTR tv139[rsp]
  001de	89 84 24 88 00
	00 00		 mov	 DWORD PTR tv201[rsp], eax
  001e5	e8 00 00 00 00	 call	 ?eof@?$_Narrow_char_traits@DH@std@@SAHXZ ; std::_Narrow_char_traits<char,int>::eof
  001ea	89 84 24 8c 00
	00 00		 mov	 DWORD PTR tv199[rsp], eax
  001f1	8b 94 24 88 00
	00 00		 mov	 edx, DWORD PTR tv201[rsp]
  001f8	8b 8c 24 8c 00
	00 00		 mov	 ecx, DWORD PTR tv199[rsp]
  001ff	e8 00 00 00 00	 call	 ?eq_int_type@?$_Narrow_char_traits@DH@std@@SA_NHH@Z ; std::_Narrow_char_traits<char,int>::eq_int_type
  00204	0f b6 c0	 movzx	 eax, al
  00207	85 c0		 test	 eax, eax
  00209	74 0d		 je	 SHORT $LN12@operator
; Line 783
  0020b	8b 44 24 20	 mov	 eax, DWORD PTR _State$[rsp]
  0020f	83 c8 04	 or	 eax, 4
  00212	89 44 24 20	 mov	 DWORD PTR _State$[rsp], eax
; Line 784
  00216	eb 05		 jmp	 SHORT $LN11@operator
$LN12@operator:
; Line 786
  00218	e9 2f ff ff ff	 jmp	 $LN2@operator
$LN11@operator:
; Line 789
  0021d	83 7c 24 20 00	 cmp	 DWORD PTR _State$[rsp], 0
  00222	75 6b		 jne	 SHORT $LN13@operator
  00224	48 8b 84 24 e0
	00 00 00	 mov	 rax, QWORD PTR _Ostr$[rsp]
  0022c	48 8b 00	 mov	 rax, QWORD PTR [rax]
  0022f	48 63 40 04	 movsxd	 rax, DWORD PTR [rax+4]
  00233	48 8b 8c 24 e0
	00 00 00	 mov	 rcx, QWORD PTR _Ostr$[rsp]
  0023b	48 03 c8	 add	 rcx, rax
  0023e	48 8b c1	 mov	 rax, rcx
  00241	48 8b c8	 mov	 rcx, rax
  00244	ff 15 00 00 00
	00		 call	 QWORD PTR __imp_?rdbuf@?$basic_ios@DU?$char_traits@D@std@@@std@@QEBAPEAV?$basic_streambuf@DU?$char_traits@D@std@@@2@XZ
  0024a	48 89 84 24 90
	00 00 00	 mov	 QWORD PTR tv223[rsp], rax
  00252	4c 8b 44 24 28	 mov	 r8, QWORD PTR _Count$[rsp]
  00257	48 8b 94 24 e8
	00 00 00	 mov	 rdx, QWORD PTR _Val$[rsp]
  0025f	48 8b 8c 24 90
	00 00 00	 mov	 rcx, QWORD PTR tv223[rsp]
  00267	ff 15 00 00 00
	00		 call	 QWORD PTR __imp_?sputn@?$basic_streambuf@DU?$char_traits@D@std@@@std@@QEAA_JPEBD_J@Z
  0026d	48 89 84 24 98
	00 00 00	 mov	 QWORD PTR tv318[rsp], rax
  00275	48 8b 44 24 28	 mov	 rax, QWORD PTR _Count$[rsp]
  0027a	48 39 84 24 98
	00 00 00	 cmp	 QWORD PTR tv318[rsp], rax
  00282	74 0b		 je	 SHORT $LN13@operator
; Line 790
  00284	8b 44 24 20	 mov	 eax, DWORD PTR _State$[rsp]
  00288	83 c8 04	 or	 eax, 4
  0028b	89 44 24 20	 mov	 DWORD PTR _State$[rsp], eax
$LN13@operator:
; Line 793
  0028f	83 7c 24 20 00	 cmp	 DWORD PTR _State$[rsp], 0
  00294	0f 85 d9 00 00
	00		 jne	 $LN14@operator
; Line 794
  0029a	eb 0d		 jmp	 SHORT $LN7@operator
$LN5@operator:
  0029c	48 8b 44 24 30	 mov	 rax, QWORD PTR _Pad$[rsp]
  002a1	48 ff c8	 dec	 rax
  002a4	48 89 44 24 30	 mov	 QWORD PTR _Pad$[rsp], rax
$LN7@operator:
  002a9	48 83 7c 24 30
	00		 cmp	 QWORD PTR _Pad$[rsp], 0
  002af	0f 8e be 00 00
	00		 jle	 $LN14@operator
; Line 795
  002b5	48 8b 84 24 e0
	00 00 00	 mov	 rax, QWORD PTR _Ostr$[rsp]
  002bd	48 8b 00	 mov	 rax, QWORD PTR [rax]
  002c0	48 63 40 04	 movsxd	 rax, DWORD PTR [rax+4]
  002c4	48 8b 8c 24 e0
	00 00 00	 mov	 rcx, QWORD PTR _Ostr$[rsp]
  002cc	48 03 c8	 add	 rcx, rax
  002cf	48 8b c1	 mov	 rax, rcx
  002d2	48 8b c8	 mov	 rcx, rax
  002d5	ff 15 00 00 00
	00		 call	 QWORD PTR __imp_?rdbuf@?$basic_ios@DU?$char_traits@D@std@@@std@@QEBAPEAV?$basic_streambuf@DU?$char_traits@D@std@@@2@XZ
  002db	48 89 84 24 a0
	00 00 00	 mov	 QWORD PTR tv260[rsp], rax
  002e3	48 8b 84 24 e0
	00 00 00	 mov	 rax, QWORD PTR _Ostr$[rsp]
  002eb	48 8b 00	 mov	 rax, QWORD PTR [rax]
  002ee	48 63 40 04	 movsxd	 rax, DWORD PTR [rax+4]
  002f2	48 8b 8c 24 e0
	00 00 00	 mov	 rcx, QWORD PTR _Ostr$[rsp]
  002fa	48 03 c8	 add	 rcx, rax
  002fd	48 8b c1	 mov	 rax, rcx
  00300	48 8b c8	 mov	 rcx, rax
  00303	ff 15 00 00 00
	00		 call	 QWORD PTR __imp_?fill@?$basic_ios@DU?$char_traits@D@std@@@std@@QEBADXZ
  00309	88 84 24 a8 00
	00 00		 mov	 BYTE PTR tv258[rsp], al
  00310	0f b6 94 24 a8
	00 00 00	 movzx	 edx, BYTE PTR tv258[rsp]
  00318	48 8b 8c 24 a0
	00 00 00	 mov	 rcx, QWORD PTR tv260[rsp]
  00320	ff 15 00 00 00
	00		 call	 QWORD PTR __imp_?sputc@?$basic_streambuf@DU?$char_traits@D@std@@@std@@QEAAHD@Z
  00326	89 84 24 ac 00
	00 00		 mov	 DWORD PTR tv319[rsp], eax
  0032d	8b 84 24 ac 00
	00 00		 mov	 eax, DWORD PTR tv319[rsp]
  00334	89 84 24 b0 00
	00 00		 mov	 DWORD PTR tv267[rsp], eax
  0033b	e8 00 00 00 00	 call	 ?eof@?$_Narrow_char_traits@DH@std@@SAHXZ ; std::_Narrow_char_traits<char,int>::eof
  00340	89 84 24 b4 00
	00 00		 mov	 DWORD PTR tv265[rsp], eax
  00347	8b 94 24 b0 00
	00 00		 mov	 edx, DWORD PTR tv267[rsp]
  0034e	8b 8c 24 b4 00
	00 00		 mov	 ecx, DWORD PTR tv265[rsp]
  00355	e8 00 00 00 00	 call	 ?eq_int_type@?$_Narrow_char_traits@DH@std@@SA_NHH@Z ; std::_Narrow_char_traits<char,int>::eq_int_type
  0035a	0f b6 c0	 movzx	 eax, al
  0035d	85 c0		 test	 eax, eax
  0035f	74 0d		 je	 SHORT $LN15@operator
; Line 796
  00361	8b 44 24 20	 mov	 eax, DWORD PTR _State$[rsp]
  00365	83 c8 04	 or	 eax, 4
  00368	89 44 24 20	 mov	 DWORD PTR _State$[rsp], eax
; Line 797
  0036c	eb 05		 jmp	 SHORT $LN14@operator
$LN15@operator:
; Line 799
  0036e	e9 29 ff ff ff	 jmp	 $LN5@operator
$LN14@operator:
; Line 802
  00373	48 8b 84 24 e0
	00 00 00	 mov	 rax, QWORD PTR _Ostr$[rsp]
  0037b	48 8b 00	 mov	 rax, QWORD PTR [rax]
  0037e	48 63 40 04	 movsxd	 rax, DWORD PTR [rax+4]
  00382	48 8b 8c 24 e0
	00 00 00	 mov	 rcx, QWORD PTR _Ostr$[rsp]
  0038a	48 03 c8	 add	 rcx, rax
  0038d	48 8b c1	 mov	 rax, rcx
  00390	48 89 84 24 b8
	00 00 00	 mov	 QWORD PTR tv285[rsp], rax
  00398	33 d2		 xor	 edx, edx
  0039a	48 8b 8c 24 b8
	00 00 00	 mov	 rcx, QWORD PTR tv285[rsp]
  003a2	ff 15 00 00 00
	00		 call	 QWORD PTR __imp_?width@ios_base@std@@QEAA_J_J@Z
  003a8	90		 npad	 1
  003a9	eb 00		 jmp	 SHORT $LN9@operator
$LN23@operator:
$LN9@operator:
; Line 806
  003ab	48 8b 84 24 e0
	00 00 00	 mov	 rax, QWORD PTR _Ostr$[rsp]
  003b3	48 8b 00	 mov	 rax, QWORD PTR [rax]
  003b6	48 63 40 04	 movsxd	 rax, DWORD PTR [rax+4]
  003ba	48 8b 8c 24 e0
	00 00 00	 mov	 rcx, QWORD PTR _Ostr$[rsp]
  003c2	48 03 c8	 add	 rcx, rax
  003c5	48 8b c1	 mov	 rax, rcx
  003c8	48 89 84 24 c8
	00 00 00	 mov	 QWORD PTR tv314[rsp], rax
  003d0	45 33 c0	 xor	 r8d, r8d
  003d3	8b 54 24 20	 mov	 edx, DWORD PTR _State$[rsp]
  003d7	48 8b 8c 24 c8
	00 00 00	 mov	 rcx, QWORD PTR tv314[rsp]
  003df	ff 15 00 00 00
	00		 call	 QWORD PTR __imp_?setstate@?$basic_ios@DU?$char_traits@D@std@@@std@@QEAAXH_N@Z
; Line 807
  003e5	48 8b 84 24 e0
	00 00 00	 mov	 rax, QWORD PTR _Ostr$[rsp]
  003ed	48 89 44 24 68	 mov	 QWORD PTR $T4[rsp], rax
  003f2	48 8d 4c 24 48	 lea	 rcx, QWORD PTR _Ok$[rsp]
  003f7	e8 00 00 00 00	 call	 ??1sentry@?$basic_ostream@DU?$char_traits@D@std@@@std@@QEAA@XZ ; std::basic_ostream<char,std::char_traits<char> >::sentry::~sentry
  003fc	48 8b 44 24 68	 mov	 rax, QWORD PTR $T4[rsp]
; Line 808
  00401	48 8b f8	 mov	 rdi, rax
  00404	48 8b cc	 mov	 rcx, rsp
  00407	48 8d 15 00 00
	00 00		 lea	 rdx, OFFSET FLAT:??$?6U?$char_traits@D@std@@@std@@YAAEAV?$basic_ostream@DU?$char_traits@D@std@@@0@AEAV10@PEBD@Z$rtcFrameData
  0040e	e8 00 00 00 00	 call	 _RTC_CheckStackVars
  00413	48 8b c7	 mov	 rax, rdi
  00416	48 81 c4 d0 00
	00 00		 add	 rsp, 208		; 000000d0H
  0041d	5f		 pop	 rdi
  0041e	c3		 ret	 0
??$?6U?$char_traits@D@std@@@std@@YAAEAV?$basic_ostream@DU?$char_traits@D@std@@@0@AEAV10@PEBD@Z ENDP ; std::operator<<<std::char_traits<char> >
_TEXT	ENDS
; Function compile flags: /Odtp /RTCsu
;	COMDAT text$x
text$x	SEGMENT
_State$ = 32
_Count$ = 40
_Pad$ = 48
_Ok$ = 72
$T4 = 104
tv137 = 112
tv194 = 120
tv192 = 128
tv139 = 132
tv201 = 136
tv199 = 140
tv223 = 144
tv318 = 152
tv260 = 160
tv258 = 168
tv319 = 172
tv267 = 176
tv265 = 180
tv285 = 184
tv299 = 192
tv314 = 200
_Ostr$ = 224
_Val$ = 232
?dtor$0@?0???$?6U?$char_traits@D@std@@@std@@YAAEAV?$basic_ostream@DU?$char_traits@D@std@@@0@AEAV10@PEBD@Z@4HA PROC ; `std::operator<<<std::char_traits<char> >'::`1'::dtor$0
  00000	48 89 4c 24 08	 mov	 QWORD PTR [rsp+8], rcx
  00005	48 89 54 24 10	 mov	 QWORD PTR [rsp+16], rdx
  0000a	55		 push	 rbp
  0000b	57		 push	 rdi
  0000c	48 83 ec 28	 sub	 rsp, 40			; 00000028H
  00010	48 8b ea	 mov	 rbp, rdx
  00013	48 8d 4d 48	 lea	 rcx, QWORD PTR _Ok$[rbp]
  00017	e8 00 00 00 00	 call	 ??1sentry@?$basic_ostream@DU?$char_traits@D@std@@@std@@QEAA@XZ ; std::basic_ostream<char,std::char_traits<char> >::sentry::~sentry
  0001c	48 83 c4 28	 add	 rsp, 40			; 00000028H
  00020	5f		 pop	 rdi
  00021	5d		 pop	 rbp
  00022	c3		 ret	 0
?dtor$0@?0???$?6U?$char_traits@D@std@@@std@@YAAEAV?$basic_ostream@DU?$char_traits@D@std@@@0@AEAV10@PEBD@Z@4HA ENDP ; `std::operator<<<std::char_traits<char> >'::`1'::dtor$0
text$x	ENDS
; Function compile flags: /Odtp /RTCsu
;	COMDAT text$x
text$x	SEGMENT
_State$ = 32
_Count$ = 40
_Pad$ = 48
_Ok$ = 72
$T4 = 104
tv137 = 112
tv194 = 120
tv192 = 128
tv139 = 132
tv201 = 136
tv199 = 140
tv223 = 144
tv318 = 152
tv260 = 160
tv258 = 168
tv319 = 172
tv267 = 176
tv265 = 180
tv285 = 184
tv299 = 192
tv314 = 200
_Ostr$ = 224
_Val$ = 232
?catch$1@?0???$?6U?$char_traits@D@std@@@std@@YAAEAV?$basic_ostream@DU?$char_traits@D@std@@@0@AEAV10@PEBD@Z@4HA PROC ; `std::operator<<<std::char_traits<char> >'::`1'::catch$1
; Line 803
  00000	48 89 4c 24 08	 mov	 QWORD PTR [rsp+8], rcx
  00005	48 89 54 24 10	 mov	 QWORD PTR [rsp+16], rdx
  0000a	55		 push	 rbp
  0000b	57		 push	 rdi
  0000c	48 83 ec 28	 sub	 rsp, 40			; 00000028H
  00010	48 8b ea	 mov	 rbp, rdx
__catch$??$?6U?$char_traits@D@std@@@std@@YAAEAV?$basic_ostream@DU?$char_traits@D@std@@@0@AEAV10@PEBD@Z$0:
  00013	48 8b 85 e0 00
	00 00		 mov	 rax, QWORD PTR _Ostr$[rbp]
  0001a	48 8b 00	 mov	 rax, QWORD PTR [rax]
  0001d	48 63 40 04	 movsxd	 rax, DWORD PTR [rax+4]
  00021	48 8b 8d e0 00
	00 00		 mov	 rcx, QWORD PTR _Ostr$[rbp]
  00028	48 03 c8	 add	 rcx, rax
  0002b	48 8b c1	 mov	 rax, rcx
  0002e	48 89 85 c0 00
	00 00		 mov	 QWORD PTR tv299[rbp], rax
  00035	41 b0 01	 mov	 r8b, 1
  00038	ba 04 00 00 00	 mov	 edx, 4
  0003d	48 8b 8d c0 00
	00 00		 mov	 rcx, QWORD PTR tv299[rbp]
  00044	ff 15 00 00 00
	00		 call	 QWORD PTR __imp_?setstate@?$basic_ios@DU?$char_traits@D@std@@@std@@QEAAXH_N@Z
  0004a	90		 npad	 1
  0004b	48 8d 05 00 00
	00 00		 lea	 rax, $LN23@catch$1
  00052	48 83 c4 28	 add	 rsp, 40			; 00000028H
  00056	5f		 pop	 rdi
  00057	5d		 pop	 rbp
  00058	c3		 ret	 0
  00059	cc		 int	 3
?catch$1@?0???$?6U?$char_traits@D@std@@@std@@YAAEAV?$basic_ostream@DU?$char_traits@D@std@@@0@AEAV10@PEBD@Z@4HA ENDP ; `std::operator<<<std::char_traits<char> >'::`1'::catch$1
text$x	ENDS
; Function compile flags: /Odtp /RTCsu
_TEXT	SEGMENT
hero1$ = 40
hero2$ = 88
attacker$ = 136
defender$ = 168
roundNum$ = 180
lastFireStatus$ = 184
fired$7 = 185
$T8 = 192
$T9 = 200
$T10 = 204
tv84 = 208
tv81 = 216
tv90 = 224
tv139 = 232
tv146 = 240
tv159 = 248
tv167 = 256
tv169 = 264
tv175 = 272
tv183 = 280
tv185 = 288
tv191 = 296
main	PROC
; File C:\Users\batma\Desktop\FIghtClub\Source\main.cpp
; Line 7
$LN9:
  00000	40 57		 push	 rdi
  00002	48 81 ec 30 01
	00 00		 sub	 rsp, 304		; 00000130H
  00009	48 8d 7c 24 20	 lea	 rdi, QWORD PTR [rsp+32]
  0000e	b9 44 00 00 00	 mov	 ecx, 68			; 00000044H
  00013	b8 cc cc cc cc	 mov	 eax, -858993460		; ccccccccH
  00018	f3 ab		 rep stosd
; Line 12
  0001a	48 8d 15 00 00
	00 00		 lea	 rdx, OFFSET FLAT:$SG53845
  00021	48 8d 4c 24 28	 lea	 rcx, QWORD PTR hero1$[rsp]
  00026	ff 15 00 00 00
	00		 call	 QWORD PTR __imp_??0Character@@QEAA@PEBD@Z
  0002c	90		 npad	 1
; Line 13
  0002d	48 8d 15 00 00
	00 00		 lea	 rdx, OFFSET FLAT:$SG53846
  00034	48 8d 4c 24 58	 lea	 rcx, QWORD PTR hero2$[rsp]
  00039	ff 15 00 00 00
	00		 call	 QWORD PTR __imp_??0Character@@QEAA@PEBD@Z
  0003f	90		 npad	 1
; Line 15
  00040	48 8d 44 24 28	 lea	 rax, QWORD PTR hero1$[rsp]
  00045	48 89 84 24 88
	00 00 00	 mov	 QWORD PTR attacker$[rsp], rax
; Line 16
  0004d	48 8d 44 24 58	 lea	 rax, QWORD PTR hero2$[rsp]
  00052	48 89 84 24 a8
	00 00 00	 mov	 QWORD PTR defender$[rsp], rax
; Line 18
  0005a	c7 84 24 b4 00
	00 00 01 00 00
	00		 mov	 DWORD PTR roundNum$[rsp], 1
; Line 19
  00065	c6 84 24 b8 00
	00 00 01	 mov	 BYTE PTR lastFireStatus$[rsp], 1
$LN2@main:
; Line 21
  0006d	33 c0		 xor	 eax, eax
  0006f	83 f8 01	 cmp	 eax, 1
  00072	0f 84 c4 02 00
	00		 je	 $LN3@main
; Line 23
  00078	48 8d 15 00 00
	00 00		 lea	 rdx, OFFSET FLAT:$SG53848
  0007f	48 8b 0d 00 00
	00 00		 mov	 rcx, QWORD PTR __imp_?cout@std@@3V?$basic_ostream@DU?$char_traits@D@std@@@1@A
  00086	e8 00 00 00 00	 call	 ??$?6U?$char_traits@D@std@@@std@@YAAEAV?$basic_ostream@DU?$char_traits@D@std@@@0@AEAV10@PEBD@Z ; std::operator<<<std::char_traits<char> >
  0008b	48 89 84 24 d0
	00 00 00	 mov	 QWORD PTR tv84[rsp], rax
  00093	8b 84 24 b4 00
	00 00		 mov	 eax, DWORD PTR roundNum$[rsp]
  0009a	89 84 24 d8 00
	00 00		 mov	 DWORD PTR tv81[rsp], eax
  000a1	8b 84 24 b4 00
	00 00		 mov	 eax, DWORD PTR roundNum$[rsp]
  000a8	ff c0		 inc	 eax
  000aa	89 84 24 b4 00
	00 00		 mov	 DWORD PTR roundNum$[rsp], eax
  000b1	8b 94 24 d8 00
	00 00		 mov	 edx, DWORD PTR tv81[rsp]
  000b8	48 8b 8c 24 d0
	00 00 00	 mov	 rcx, QWORD PTR tv84[rsp]
  000c0	ff 15 00 00 00
	00		 call	 QWORD PTR __imp_??6?$basic_ostream@DU?$char_traits@D@std@@@std@@QEAAAEAV01@H@Z
  000c6	48 8d 15 00 00
	00 00		 lea	 rdx, OFFSET FLAT:$SG53847
  000cd	48 8b c8	 mov	 rcx, rax
  000d0	e8 00 00 00 00	 call	 ??$?6U?$char_traits@D@std@@@std@@YAAEAV?$basic_ostream@DU?$char_traits@D@std@@@0@AEAV10@PEBD@Z ; std::operator<<<std::char_traits<char> >
  000d5	48 89 84 24 e0
	00 00 00	 mov	 QWORD PTR tv90[rsp], rax
  000dd	48 8d 15 00 00
	00 00		 lea	 rdx, OFFSET FLAT:??$endl@DU?$char_traits@D@std@@@std@@YAAEAV?$basic_ostream@DU?$char_traits@D@std@@@0@AEAV10@@Z ; std::endl<char,std::char_traits<char> >
  000e4	48 8b 8c 24 e0
	00 00 00	 mov	 rcx, QWORD PTR tv90[rsp]
  000ec	ff 15 00 00 00
	00		 call	 QWORD PTR __imp_??6?$basic_ostream@DU?$char_traits@D@std@@@std@@QEAAAEAV01@P6AAEAV01@AEAV01@@Z@Z
; Line 25
  000f2	48 8b 94 24 a8
	00 00 00	 mov	 rdx, QWORD PTR defender$[rsp]
  000fa	48 8b 8c 24 88
	00 00 00	 mov	 rcx, QWORD PTR attacker$[rsp]
  00102	ff 15 00 00 00
	00		 call	 QWORD PTR __imp_?attack@Character@@QEAA_NAEAV1@@Z
  00108	88 84 24 b9 00
	00 00		 mov	 BYTE PTR fired$7[rsp], al
; Line 26
  0010f	0f b6 84 24 b8
	00 00 00	 movzx	 eax, BYTE PTR lastFireStatus$[rsp]
  00117	0f b6 8c 24 b9
	00 00 00	 movzx	 ecx, BYTE PTR fired$7[rsp]
  0011f	3b c1		 cmp	 eax, ecx
  00121	0f 85 85 00 00
	00		 jne	 $LN4@main
  00127	0f b6 84 24 b9
	00 00 00	 movzx	 eax, BYTE PTR fired$7[rsp]
  0012f	85 c0		 test	 eax, eax
  00131	75 79		 jne	 SHORT $LN4@main
; Line 28
  00133	48 8d 15 00 00
	00 00		 lea	 rdx, OFFSET FLAT:??$endl@DU?$char_traits@D@std@@@std@@YAAEAV?$basic_ostream@DU?$char_traits@D@std@@@0@AEAV10@@Z ; std::endl<char,std::char_traits<char> >
  0013a	48 8b 0d 00 00
	00 00		 mov	 rcx, QWORD PTR __imp_?cout@std@@3V?$basic_ostream@DU?$char_traits@D@std@@@1@A
  00141	ff 15 00 00 00
	00		 call	 QWORD PTR __imp_??6?$basic_ostream@DU?$char_traits@D@std@@@std@@QEAAAEAV01@P6AAEAV01@AEAV01@@Z@Z
; Line 29
  00147	48 8d 15 00 00
	00 00		 lea	 rdx, OFFSET FLAT:$SG53850
  0014e	48 8b 0d 00 00
	00 00		 mov	 rcx, QWORD PTR __imp_?cout@std@@3V?$basic_ostream@DU?$char_traits@D@std@@@1@A
  00155	e8 00 00 00 00	 call	 ??$?6U?$char_traits@D@std@@@std@@YAAEAV?$basic_ostream@DU?$char_traits@D@std@@@0@AEAV10@PEBD@Z ; std::operator<<<std::char_traits<char> >
  0015a	48 89 84 24 e8
	00 00 00	 mov	 QWORD PTR tv139[rsp], rax
  00162	48 8d 15 00 00
	00 00		 lea	 rdx, OFFSET FLAT:??$endl@DU?$char_traits@D@std@@@std@@YAAEAV?$basic_ostream@DU?$char_traits@D@std@@@0@AEAV10@@Z ; std::endl<char,std::char_traits<char> >
  00169	48 8b 8c 24 e8
	00 00 00	 mov	 rcx, QWORD PTR tv139[rsp]
  00171	ff 15 00 00 00
	00		 call	 QWORD PTR __imp_??6?$basic_ostream@DU?$char_traits@D@std@@@std@@QEAAAEAV01@P6AAEAV01@AEAV01@@Z@Z
; Line 30
  00177	48 8d 15 00 00
	00 00		 lea	 rdx, OFFSET FLAT:$SG53851
  0017e	48 8b 0d 00 00
	00 00		 mov	 rcx, QWORD PTR __imp_?cout@std@@3V?$basic_ostream@DU?$char_traits@D@std@@@1@A
  00185	e8 00 00 00 00	 call	 ??$?6U?$char_traits@D@std@@@std@@YAAEAV?$basic_ostream@DU?$char_traits@D@std@@@0@AEAV10@PEBD@Z ; std::operator<<<std::char_traits<char> >
  0018a	48 89 84 24 f0
	00 00 00	 mov	 QWORD PTR tv146[rsp], rax
  00192	48 8d 15 00 00
	00 00		 lea	 rdx, OFFSET FLAT:??$endl@DU?$char_traits@D@std@@@std@@YAAEAV?$basic_ostream@DU?$char_traits@D@std@@@0@AEAV10@@Z ; std::endl<char,std::char_traits<char> >
  00199	48 8b 8c 24 f0
	00 00 00	 mov	 rcx, QWORD PTR tv146[rsp]
  001a1	ff 15 00 00 00
	00		 call	 QWORD PTR __imp_??6?$basic_ostream@DU?$char_traits@D@std@@@std@@QEAAAEAV01@P6AAEAV01@AEAV01@@Z@Z
; Line 31
  001a7	e9 90 01 00 00	 jmp	 $LN3@main
$LN4@main:
; Line 33
  001ac	0f b6 84 24 b9
	00 00 00	 movzx	 eax, BYTE PTR fired$7[rsp]
  001b4	88 84 24 b8 00
	00 00		 mov	 BYTE PTR lastFireStatus$[rsp], al
; Line 35
  001bb	48 8b 8c 24 a8
	00 00 00	 mov	 rcx, QWORD PTR defender$[rsp]
  001c3	ff 15 00 00 00
	00		 call	 QWORD PTR __imp_?dead@Character@@QEBA_NXZ
  001c9	0f b6 c0	 movzx	 eax, al
  001cc	85 c0		 test	 eax, eax
  001ce	0f 84 12 01 00
	00		 je	 $LN5@main
; Line 37
  001d4	48 8d 15 00 00
	00 00		 lea	 rdx, OFFSET FLAT:??$endl@DU?$char_traits@D@std@@@std@@YAAEAV?$basic_ostream@DU?$char_traits@D@std@@@0@AEAV10@@Z ; std::endl<char,std::char_traits<char> >
  001db	48 8b 0d 00 00
	00 00		 mov	 rcx, QWORD PTR __imp_?cout@std@@3V?$basic_ostream@DU?$char_traits@D@std@@@1@A
  001e2	ff 15 00 00 00
	00		 call	 QWORD PTR __imp_??6?$basic_ostream@DU?$char_traits@D@std@@@std@@QEAAAEAV01@P6AAEAV01@AEAV01@@Z@Z
; Line 38
  001e8	48 8d 15 00 00
	00 00		 lea	 rdx, OFFSET FLAT:$SG53853
  001ef	48 8b 0d 00 00
	00 00		 mov	 rcx, QWORD PTR __imp_?cout@std@@3V?$basic_ostream@DU?$char_traits@D@std@@@1@A
  001f6	e8 00 00 00 00	 call	 ??$?6U?$char_traits@D@std@@@std@@YAAEAV?$basic_ostream@DU?$char_traits@D@std@@@0@AEAV10@PEBD@Z ; std::operator<<<std::char_traits<char> >
  001fb	48 89 84 24 f8
	00 00 00	 mov	 QWORD PTR tv159[rsp], rax
  00203	48 8d 15 00 00
	00 00		 lea	 rdx, OFFSET FLAT:??$endl@DU?$char_traits@D@std@@@std@@YAAEAV?$basic_ostream@DU?$char_traits@D@std@@@0@AEAV10@@Z ; std::endl<char,std::char_traits<char> >
  0020a	48 8b 8c 24 f8
	00 00 00	 mov	 rcx, QWORD PTR tv159[rsp]
  00212	ff 15 00 00 00
	00		 call	 QWORD PTR __imp_??6?$basic_ostream@DU?$char_traits@D@std@@@std@@QEAAAEAV01@P6AAEAV01@AEAV01@@Z@Z
; Line 39
  00218	48 8b 05 00 00
	00 00		 mov	 rax, QWORD PTR __imp_?cout@std@@3V?$basic_ostream@DU?$char_traits@D@std@@@1@A
  0021f	48 89 84 24 00
	01 00 00	 mov	 QWORD PTR tv167[rsp], rax
  00227	48 8b 8c 24 a8
	00 00 00	 mov	 rcx, QWORD PTR defender$[rsp]
  0022f	ff 15 00 00 00
	00		 call	 QWORD PTR __imp_?name@Character@@QEBAPEBDXZ
  00235	48 89 84 24 08
	01 00 00	 mov	 QWORD PTR tv169[rsp], rax
  0023d	48 8b 94 24 08
	01 00 00	 mov	 rdx, QWORD PTR tv169[rsp]
  00245	48 8b 8c 24 00
	01 00 00	 mov	 rcx, QWORD PTR tv167[rsp]
  0024d	e8 00 00 00 00	 call	 ??$?6U?$char_traits@D@std@@@std@@YAAEAV?$basic_ostream@DU?$char_traits@D@std@@@0@AEAV10@PEBD@Z ; std::operator<<<std::char_traits<char> >
  00252	48 8d 15 00 00
	00 00		 lea	 rdx, OFFSET FLAT:$SG53854
  00259	48 8b c8	 mov	 rcx, rax
  0025c	e8 00 00 00 00	 call	 ??$?6U?$char_traits@D@std@@@std@@YAAEAV?$basic_ostream@DU?$char_traits@D@std@@@0@AEAV10@PEBD@Z ; std::operator<<<std::char_traits<char> >
  00261	48 89 84 24 10
	01 00 00	 mov	 QWORD PTR tv175[rsp], rax
  00269	48 8d 15 00 00
	00 00		 lea	 rdx, OFFSET FLAT:??$endl@DU?$char_traits@D@std@@@std@@YAAEAV?$basic_ostream@DU?$char_traits@D@std@@@0@AEAV10@@Z ; std::endl<char,std::char_traits<char> >
  00270	48 8b 8c 24 10
	01 00 00	 mov	 rcx, QWORD PTR tv175[rsp]
  00278	ff 15 00 00 00
	00		 call	 QWORD PTR __imp_??6?$basic_ostream@DU?$char_traits@D@std@@@std@@QEAAAEAV01@P6AAEAV01@AEAV01@@Z@Z
; Line 40
  0027e	48 8b 05 00 00
	00 00		 mov	 rax, QWORD PTR __imp_?cout@std@@3V?$basic_ostream@DU?$char_traits@D@std@@@1@A
  00285	48 89 84 24 18
	01 00 00	 mov	 QWORD PTR tv183[rsp], rax
  0028d	48 8b 8c 24 88
	00 00 00	 mov	 rcx, QWORD PTR attacker$[rsp]
  00295	ff 15 00 00 00
	00		 call	 QWORD PTR __imp_?name@Character@@QEBAPEBDXZ
  0029b	48 89 84 24 20
	01 00 00	 mov	 QWORD PTR tv185[rsp], rax
  002a3	48 8b 94 24 20
	01 00 00	 mov	 rdx, QWORD PTR tv185[rsp]
  002ab	48 8b 8c 24 18
	01 00 00	 mov	 rcx, QWORD PTR tv183[rsp]
  002b3	e8 00 00 00 00	 call	 ??$?6U?$char_traits@D@std@@@std@@YAAEAV?$basic_ostream@DU?$char_traits@D@std@@@0@AEAV10@PEBD@Z ; std::operator<<<std::char_traits<char> >
  002b8	48 8d 15 00 00
	00 00		 lea	 rdx, OFFSET FLAT:$SG53855
  002bf	48 8b c8	 mov	 rcx, rax
  002c2	e8 00 00 00 00	 call	 ??$?6U?$char_traits@D@std@@@std@@YAAEAV?$basic_ostream@DU?$char_traits@D@std@@@0@AEAV10@PEBD@Z ; std::operator<<<std::char_traits<char> >
  002c7	48 89 84 24 28
	01 00 00	 mov	 QWORD PTR tv191[rsp], rax
  002cf	48 8d 15 00 00
	00 00		 lea	 rdx, OFFSET FLAT:??$endl@DU?$char_traits@D@std@@@std@@YAAEAV?$basic_ostream@DU?$char_traits@D@std@@@0@AEAV10@@Z ; std::endl<char,std::char_traits<char> >
  002d6	48 8b 8c 24 28
	01 00 00	 mov	 rcx, QWORD PTR tv191[rsp]
  002de	ff 15 00 00 00
	00		 call	 QWORD PTR __imp_??6?$basic_ostream@DU?$char_traits@D@std@@@std@@QEAAAEAV01@P6AAEAV01@AEAV01@@Z@Z
; Line 41
  002e4	eb 56		 jmp	 SHORT $LN3@main
$LN5@main:
; Line 44
  002e6	48 8d 94 24 a8
	00 00 00	 lea	 rdx, QWORD PTR defender$[rsp]
  002ee	48 8d 8c 24 88
	00 00 00	 lea	 rcx, QWORD PTR attacker$[rsp]
  002f6	e8 00 00 00 00	 call	 ??$swap@PEAVCharacter@@$0A@@std@@YAXAEAPEAVCharacter@@0@Z ; std::swap<Character *,0>
; Line 45
  002fb	48 8d 15 00 00
	00 00		 lea	 rdx, OFFSET FLAT:??$endl@DU?$char_traits@D@std@@@std@@YAAEAV?$basic_ostream@DU?$char_traits@D@std@@@0@AEAV10@@Z ; std::endl<char,std::char_traits<char> >
  00302	48 8b 0d 00 00
	00 00		 mov	 rcx, QWORD PTR __imp_?cout@std@@3V?$basic_ostream@DU?$char_traits@D@std@@@1@A
  00309	ff 15 00 00 00
	00		 call	 QWORD PTR __imp_??6?$basic_ostream@DU?$char_traits@D@std@@@std@@QEAAAEAV01@P6AAEAV01@AEAV01@@Z@Z
; Line 47
  0030f	c7 84 24 c8 00
	00 00 f4 01 00
	00		 mov	 DWORD PTR $T9[rsp], 500	; 000001f4H
  0031a	48 8d 94 24 c8
	00 00 00	 lea	 rdx, QWORD PTR $T9[rsp]
  00322	48 8d 8c 24 c0
	00 00 00	 lea	 rcx, QWORD PTR $T8[rsp]
  0032a	e8 00 00 00 00	 call	 ??$?0H$0A@@?$duration@_JU?$ratio@$00$0DOI@@std@@@chrono@std@@QEAA@AEBH@Z ; std::chrono::duration<__int64,std::ratio<1,1000> >::duration<__int64,std::ratio<1,1000> ><int,0>
  0032f	48 8b c8	 mov	 rcx, rax
  00332	e8 00 00 00 00	 call	 ??$sleep_for@_JU?$ratio@$00$0DOI@@std@@@this_thread@std@@YAXAEBV?$duration@_JU?$ratio@$00$0DOI@@std@@@chrono@1@@Z ; std::this_thread::sleep_for<__int64,std::ratio<1,1000> >
; Line 48
  00337	e9 31 fd ff ff	 jmp	 $LN2@main
$LN3@main:
; Line 50
  0033c	48 8b 0d 00 00
	00 00		 mov	 rcx, QWORD PTR __imp_?cin@std@@3V?$basic_istream@DU?$char_traits@D@std@@@1@A
  00343	ff 15 00 00 00
	00		 call	 QWORD PTR __imp_?get@?$basic_istream@DU?$char_traits@D@std@@@std@@QEAAHXZ
; Line 52
  00349	c7 84 24 cc 00
	00 00 00 00 00
	00		 mov	 DWORD PTR $T10[rsp], 0
  00354	48 8d 4c 24 58	 lea	 rcx, QWORD PTR hero2$[rsp]
  00359	ff 15 00 00 00
	00		 call	 QWORD PTR __imp_??1Character@@QEAA@XZ
  0035f	90		 npad	 1
  00360	48 8d 4c 24 28	 lea	 rcx, QWORD PTR hero1$[rsp]
  00365	ff 15 00 00 00
	00		 call	 QWORD PTR __imp_??1Character@@QEAA@XZ
  0036b	8b 84 24 cc 00
	00 00		 mov	 eax, DWORD PTR $T10[rsp]
; Line 53
  00372	8b f8		 mov	 edi, eax
  00374	48 8b cc	 mov	 rcx, rsp
  00377	48 8d 15 00 00
	00 00		 lea	 rdx, OFFSET FLAT:main$rtcFrameData
  0037e	e8 00 00 00 00	 call	 _RTC_CheckStackVars
  00383	8b c7		 mov	 eax, edi
  00385	48 81 c4 30 01
	00 00		 add	 rsp, 304		; 00000130H
  0038c	5f		 pop	 rdi
  0038d	c3		 ret	 0
main	ENDP
_TEXT	ENDS
; Function compile flags: /Odtp /RTCsu
text$x	SEGMENT
hero1$ = 40
hero2$ = 88
attacker$ = 136
defender$ = 168
roundNum$ = 180
lastFireStatus$ = 184
fired$7 = 185
$T8 = 192
$T9 = 200
$T10 = 204
tv84 = 208
tv81 = 216
tv90 = 224
tv139 = 232
tv146 = 240
tv159 = 248
tv167 = 256
tv169 = 264
tv175 = 272
tv183 = 280
tv185 = 288
tv191 = 296
main$dtor$0 PROC
  00000	48 89 4c 24 08	 mov	 QWORD PTR [rsp+8], rcx
  00005	48 89 54 24 10	 mov	 QWORD PTR [rsp+16], rdx
  0000a	55		 push	 rbp
  0000b	57		 push	 rdi
  0000c	48 83 ec 28	 sub	 rsp, 40			; 00000028H
  00010	48 8b ea	 mov	 rbp, rdx
  00013	48 8d 4d 28	 lea	 rcx, QWORD PTR hero1$[rbp]
  00017	ff 15 00 00 00
	00		 call	 QWORD PTR __imp_??1Character@@QEAA@XZ
  0001d	48 83 c4 28	 add	 rsp, 40			; 00000028H
  00021	5f		 pop	 rdi
  00022	5d		 pop	 rbp
  00023	c3		 ret	 0
main$dtor$0 ENDP
text$x	ENDS
; Function compile flags: /Odtp /RTCsu
text$x	SEGMENT
hero1$ = 40
hero2$ = 88
attacker$ = 136
defender$ = 168
roundNum$ = 180
lastFireStatus$ = 184
fired$7 = 185
$T8 = 192
$T9 = 200
$T10 = 204
tv84 = 208
tv81 = 216
tv90 = 224
tv139 = 232
tv146 = 240
tv159 = 248
tv167 = 256
tv169 = 264
tv175 = 272
tv183 = 280
tv185 = 288
tv191 = 296
main$dtor$1 PROC
  00024	48 89 4c 24 08	 mov	 QWORD PTR [rsp+8], rcx
  00029	48 89 54 24 10	 mov	 QWORD PTR [rsp+16], rdx
  0002e	55		 push	 rbp
  0002f	57		 push	 rdi
  00030	48 83 ec 28	 sub	 rsp, 40			; 00000028H
  00034	48 8b ea	 mov	 rbp, rdx
  00037	48 8d 4d 58	 lea	 rcx, QWORD PTR hero2$[rbp]
  0003b	ff 15 00 00 00
	00		 call	 QWORD PTR __imp_??1Character@@QEAA@XZ
  00041	48 83 c4 28	 add	 rsp, 40			; 00000028H
  00045	5f		 pop	 rdi
  00046	5d		 pop	 rbp
  00047	c3		 ret	 0
main$dtor$1 ENDP
text$x	ENDS
; Function compile flags: /Odtp /RTCsu
;	COMDAT ?count@?$duration@NU?$ratio@$00$0DLJKMKAA@@std@@@chrono@std@@QEBANXZ
_TEXT	SEGMENT
this$ = 32
?count@?$duration@NU?$ratio@$00$0DLJKMKAA@@std@@@chrono@std@@QEBANXZ PROC ; std::chrono::duration<double,std::ratio<1,1000000000> >::count, COMDAT
; File C:\Program Files\Microsoft Visual Studio\2022\Community\VC\Tools\MSVC\14.38.33130\include\__msvc_chrono.hpp
; Line 108
$LN3:
  00000	48 89 4c 24 08	 mov	 QWORD PTR [rsp+8], rcx
  00005	57		 push	 rdi
  00006	48 83 ec 10	 sub	 rsp, 16
; Line 109
  0000a	48 8b 44 24 20	 mov	 rax, QWORD PTR this$[rsp]
  0000f	f2 0f 10 00	 movsd	 xmm0, QWORD PTR [rax]
; Line 110
  00013	48 83 c4 10	 add	 rsp, 16
  00017	5f		 pop	 rdi
  00018	c3		 ret	 0
?count@?$duration@NU?$ratio@$00$0DLJKMKAA@@std@@@chrono@std@@QEBANXZ ENDP ; std::chrono::duration<double,std::ratio<1,1000000000> >::count
_TEXT	ENDS
; Function compile flags: /Odtp /RTCsu
;	COMDAT ?count@?$duration@_JU?$ratio@$00$0DOI@@std@@@chrono@std@@QEBA_JXZ
_TEXT	SEGMENT
this$ = 16
?count@?$duration@_JU?$ratio@$00$0DOI@@std@@@chrono@std@@QEBA_JXZ PROC ; std::chrono::duration<__int64,std::ratio<1,1000> >::count, COMDAT
; File C:\Program Files\Microsoft Visual Studio\2022\Community\VC\Tools\MSVC\14.38.33130\include\__msvc_chrono.hpp
; Line 108
$LN3:
  00000	48 89 4c 24 08	 mov	 QWORD PTR [rsp+8], rcx
  00005	57		 push	 rdi
; Line 109
  00006	48 8b 44 24 10	 mov	 rax, QWORD PTR this$[rsp]
  0000b	48 8b 00	 mov	 rax, QWORD PTR [rax]
; Line 110
  0000e	5f		 pop	 rdi
  0000f	c3		 ret	 0
?count@?$duration@_JU?$ratio@$00$0DOI@@std@@@chrono@std@@QEBA_JXZ ENDP ; std::chrono::duration<__int64,std::ratio<1,1000> >::count
_TEXT	ENDS
; Function compile flags: /Odtp /RTCsu
;	COMDAT ??$?0_JU?$ratio@$00$00@std@@$0A@@?$duration@_JU?$ratio@$00$0DLJKMKAA@@std@@@chrono@std@@QEAA@AEBV?$duration@_JU?$ratio@$00$00@std@@@12@@Z
_TEXT	SEGMENT
$T1 = 32
this$ = 64
_Dur$ = 72
??$?0_JU?$ratio@$00$00@std@@$0A@@?$duration@_JU?$ratio@$00$0DLJKMKAA@@std@@@chrono@std@@QEAA@AEBV?$duration@_JU?$ratio@$00$00@std@@@12@@Z PROC ; std::chrono::duration<__int64,std::ratio<1,1000000000> >::duration<__int64,std::ratio<1,1000000000> ><__int64,std::ratio<1,1>,0>, COMDAT
; File C:\Program Files\Microsoft Visual Studio\2022\Community\VC\Tools\MSVC\14.38.33130\include\__msvc_chrono.hpp
; Line 106
$LN3:
  00000	48 89 54 24 10	 mov	 QWORD PTR [rsp+16], rdx
  00005	48 89 4c 24 08	 mov	 QWORD PTR [rsp+8], rcx
  0000a	57		 push	 rdi
  0000b	48 83 ec 30	 sub	 rsp, 48			; 00000030H
  0000f	48 8b 54 24 48	 mov	 rdx, QWORD PTR _Dur$[rsp]
  00014	48 8d 4c 24 20	 lea	 rcx, QWORD PTR $T1[rsp]
  00019	e8 00 00 00 00	 call	 ??$duration_cast@V?$duration@_JU?$ratio@$00$0DLJKMKAA@@std@@@chrono@std@@_JU?$ratio@$00$00@3@$0A@@chrono@std@@YA?AV?$duration@_JU?$ratio@$00$0DLJKMKAA@@std@@@01@AEBV?$duration@_JU?$ratio@$00$00@std@@@01@@Z ; std::chrono::duration_cast<std::chrono::duration<__int64,std::ratio<1,1000000000> >,__int64,std::ratio<1,1>,0>
  0001e	48 8b c8	 mov	 rcx, rax
  00021	e8 00 00 00 00	 call	 ?count@?$duration@_JU?$ratio@$00$0DLJKMKAA@@std@@@chrono@std@@QEBA_JXZ ; std::chrono::duration<__int64,std::ratio<1,1000000000> >::count
  00026	48 8b 4c 24 40	 mov	 rcx, QWORD PTR this$[rsp]
  0002b	48 89 01	 mov	 QWORD PTR [rcx], rax
  0002e	48 8b 44 24 40	 mov	 rax, QWORD PTR this$[rsp]
  00033	48 83 c4 30	 add	 rsp, 48			; 00000030H
  00037	5f		 pop	 rdi
  00038	c3		 ret	 0
??$?0_JU?$ratio@$00$00@std@@$0A@@?$duration@_JU?$ratio@$00$0DLJKMKAA@@std@@@chrono@std@@QEAA@AEBV?$duration@_JU?$ratio@$00$00@std@@@12@@Z ENDP ; std::chrono::duration<__int64,std::ratio<1,1000000000> >::duration<__int64,std::ratio<1,1000000000> ><__int64,std::ratio<1,1>,0>
_TEXT	ENDS
; Function compile flags: /Odtp /RTCsu
;	COMDAT ??$duration_cast@V?$duration@_JU?$ratio@$00$00@std@@@chrono@std@@_JU?$ratio@$00$0DLJKMKAA@@3@$0A@@chrono@std@@YA?AV?$duration@_JU?$ratio@$00$00@std@@@01@AEBV?$duration@_JU?$ratio@$00$0DLJKMKAA@@std@@@01@@Z
_TEXT	SEGMENT
_Num_is_one$ = 32
_Den_is_one$ = 33
$T1 = 40
__$ReturnUdt$ = 64
_Dur$ = 72
??$duration_cast@V?$duration@_JU?$ratio@$00$00@std@@@chrono@std@@_JU?$ratio@$00$0DLJKMKAA@@3@$0A@@chrono@std@@YA?AV?$duration@_JU?$ratio@$00$00@std@@@01@AEBV?$duration@_JU?$ratio@$00$0DLJKMKAA@@std@@@01@@Z PROC ; std::chrono::duration_cast<std::chrono::duration<__int64,std::ratio<1,1> >,__int64,std::ratio<1,1000000000>,0>, COMDAT
; File C:\Program Files\Microsoft Visual Studio\2022\Community\VC\Tools\MSVC\14.38.33130\include\__msvc_chrono.hpp
; Line 421
$LN3:
  00000	48 89 54 24 10	 mov	 QWORD PTR [rsp+16], rdx
  00005	48 89 4c 24 08	 mov	 QWORD PTR [rsp+8], rcx
  0000a	57		 push	 rdi
  0000b	48 83 ec 30	 sub	 rsp, 48			; 00000030H
; Line 428
  0000f	c6 44 24 20 01	 mov	 BYTE PTR _Num_is_one$[rsp], 1
; Line 429
  00014	c6 44 24 21 00	 mov	 BYTE PTR _Den_is_one$[rsp], 0
; Line 440
  00019	48 8b 4c 24 48	 mov	 rcx, QWORD PTR _Dur$[rsp]
  0001e	e8 00 00 00 00	 call	 ?count@?$duration@_JU?$ratio@$00$0DLJKMKAA@@std@@@chrono@std@@QEBA_JXZ ; std::chrono::duration<__int64,std::ratio<1,1000000000> >::count
  00023	48 99		 cdq
  00025	b9 00 ca 9a 3b	 mov	 ecx, 1000000000		; 3b9aca00H
  0002a	48 f7 f9	 idiv	 rcx
  0002d	48 89 44 24 28	 mov	 QWORD PTR $T1[rsp], rax
  00032	48 8d 54 24 28	 lea	 rdx, QWORD PTR $T1[rsp]
  00037	48 8b 4c 24 40	 mov	 rcx, QWORD PTR __$ReturnUdt$[rsp]
  0003c	e8 00 00 00 00	 call	 ??$?0_J$0A@@?$duration@_JU?$ratio@$00$00@std@@@chrono@std@@QEAA@AEB_J@Z ; std::chrono::duration<__int64,std::ratio<1,1> >::duration<__int64,std::ratio<1,1> ><__int64,0>
  00041	48 8b 44 24 40	 mov	 rax, QWORD PTR __$ReturnUdt$[rsp]
; Line 447
  00046	48 83 c4 30	 add	 rsp, 48			; 00000030H
  0004a	5f		 pop	 rdi
  0004b	c3		 ret	 0
??$duration_cast@V?$duration@_JU?$ratio@$00$00@std@@@chrono@std@@_JU?$ratio@$00$0DLJKMKAA@@3@$0A@@chrono@std@@YA?AV?$duration@_JU?$ratio@$00$00@std@@@01@AEBV?$duration@_JU?$ratio@$00$0DLJKMKAA@@std@@@01@@Z ENDP ; std::chrono::duration_cast<std::chrono::duration<__int64,std::ratio<1,1> >,__int64,std::ratio<1,1000000000>,0>
_TEXT	ENDS
; Function compile flags: /Odtp /RTCsu
;	COMDAT ?count@?$duration@NU?$ratio@$00$00@std@@@chrono@std@@QEBANXZ
_TEXT	SEGMENT
this$ = 32
?count@?$duration@NU?$ratio@$00$00@std@@@chrono@std@@QEBANXZ PROC ; std::chrono::duration<double,std::ratio<1,1> >::count, COMDAT
; File C:\Program Files\Microsoft Visual Studio\2022\Community\VC\Tools\MSVC\14.38.33130\include\__msvc_chrono.hpp
; Line 108
$LN3:
  00000	48 89 4c 24 08	 mov	 QWORD PTR [rsp+8], rcx
  00005	57		 push	 rdi
  00006	48 83 ec 10	 sub	 rsp, 16
; Line 109
  0000a	48 8b 44 24 20	 mov	 rax, QWORD PTR this$[rsp]
  0000f	f2 0f 10 00	 movsd	 xmm0, QWORD PTR [rax]
; Line 110
  00013	48 83 c4 10	 add	 rsp, 16
  00017	5f		 pop	 rdi
  00018	c3		 ret	 0
?count@?$duration@NU?$ratio@$00$00@std@@@chrono@std@@QEBANXZ ENDP ; std::chrono::duration<double,std::ratio<1,1> >::count
_TEXT	ENDS
; Function compile flags: /Odtp /RTCsu
;	COMDAT ??$?0_J$0A@@?$duration@_JU?$ratio@$00$0DLJKMKAA@@std@@@chrono@std@@QEAA@AEB_J@Z
_TEXT	SEGMENT
this$ = 16
_Val$ = 24
??$?0_J$0A@@?$duration@_JU?$ratio@$00$0DLJKMKAA@@std@@@chrono@std@@QEAA@AEB_J@Z PROC ; std::chrono::duration<__int64,std::ratio<1,1000000000> >::duration<__int64,std::ratio<1,1000000000> ><__int64,0>, COMDAT
; File C:\Program Files\Microsoft Visual Studio\2022\Community\VC\Tools\MSVC\14.38.33130\include\__msvc_chrono.hpp
; Line 98
$LN3:
  00000	48 89 54 24 10	 mov	 QWORD PTR [rsp+16], rdx
  00005	48 89 4c 24 08	 mov	 QWORD PTR [rsp+8], rcx
  0000a	57		 push	 rdi
  0000b	48 8b 44 24 10	 mov	 rax, QWORD PTR this$[rsp]
  00010	48 8b 4c 24 18	 mov	 rcx, QWORD PTR _Val$[rsp]
  00015	48 8b 09	 mov	 rcx, QWORD PTR [rcx]
  00018	48 89 08	 mov	 QWORD PTR [rax], rcx
  0001b	48 8b 44 24 10	 mov	 rax, QWORD PTR this$[rsp]
  00020	5f		 pop	 rdi
  00021	c3		 ret	 0
??$?0_J$0A@@?$duration@_JU?$ratio@$00$0DLJKMKAA@@std@@@chrono@std@@QEAA@AEB_J@Z ENDP ; std::chrono::duration<__int64,std::ratio<1,1000000000> >::duration<__int64,std::ratio<1,1000000000> ><__int64,0>
_TEXT	ENDS
; Function compile flags: /Odtp /RTCsu
;	COMDAT ??Y?$time_point@Usteady_clock@chrono@std@@V?$duration@_JU?$ratio@$00$0DLJKMKAA@@std@@@23@@chrono@std@@QEAAAEAV012@AEBV?$duration@_JU?$ratio@$00$0DLJKMKAA@@std@@@12@@Z
_TEXT	SEGMENT
this$ = 48
_Dur$ = 56
??Y?$time_point@Usteady_clock@chrono@std@@V?$duration@_JU?$ratio@$00$0DLJKMKAA@@std@@@23@@chrono@std@@QEAAAEAV012@AEBV?$duration@_JU?$ratio@$00$0DLJKMKAA@@std@@@12@@Z PROC ; std::chrono::time_point<std::chrono::steady_clock,std::chrono::duration<__int64,std::ratio<1,1000000000> > >::operator+=, COMDAT
; File C:\Program Files\Microsoft Visual Studio\2022\Community\VC\Tools\MSVC\14.38.33130\include\__msvc_chrono.hpp
; Line 231
$LN3:
  00000	48 89 54 24 10	 mov	 QWORD PTR [rsp+16], rdx
  00005	48 89 4c 24 08	 mov	 QWORD PTR [rsp+8], rcx
  0000a	57		 push	 rdi
  0000b	48 83 ec 20	 sub	 rsp, 32			; 00000020H
; Line 232
  0000f	48 8b 44 24 30	 mov	 rax, QWORD PTR this$[rsp]
  00014	48 8b 54 24 38	 mov	 rdx, QWORD PTR _Dur$[rsp]
  00019	48 8b c8	 mov	 rcx, rax
  0001c	e8 00 00 00 00	 call	 ??Y?$duration@_JU?$ratio@$00$0DLJKMKAA@@std@@@chrono@std@@QEAAAEAV012@AEBV012@@Z ; std::chrono::duration<__int64,std::ratio<1,1000000000> >::operator+=
; Line 233
  00021	48 8b 44 24 30	 mov	 rax, QWORD PTR this$[rsp]
; Line 234
  00026	48 83 c4 20	 add	 rsp, 32			; 00000020H
  0002a	5f		 pop	 rdi
  0002b	c3		 ret	 0
??Y?$time_point@Usteady_clock@chrono@std@@V?$duration@_JU?$ratio@$00$0DLJKMKAA@@std@@@23@@chrono@std@@QEAAAEAV012@AEBV?$duration@_JU?$ratio@$00$0DLJKMKAA@@std@@@12@@Z ENDP ; std::chrono::time_point<std::chrono::steady_clock,std::chrono::duration<__int64,std::ratio<1,1000000000> > >::operator+=
_TEXT	ENDS
; Function compile flags: /Odtp /RTCsu
;	COMDAT ?time_since_epoch@?$time_point@Usteady_clock@chrono@std@@V?$duration@_JU?$ratio@$00$0DLJKMKAA@@std@@@23@@chrono@std@@QEBA?AV?$duration@_JU?$ratio@$00$0DLJKMKAA@@std@@@23@XZ
_TEXT	SEGMENT
this$ = 16
__$ReturnUdt$ = 24
?time_since_epoch@?$time_point@Usteady_clock@chrono@std@@V?$duration@_JU?$ratio@$00$0DLJKMKAA@@std@@@23@@chrono@std@@QEBA?AV?$duration@_JU?$ratio@$00$0DLJKMKAA@@std@@@23@XZ PROC ; std::chrono::time_point<std::chrono::steady_clock,std::chrono::duration<__int64,std::ratio<1,1000000000> > >::time_since_epoch, COMDAT
; File C:\Program Files\Microsoft Visual Studio\2022\Community\VC\Tools\MSVC\14.38.33130\include\__msvc_chrono.hpp
; Line 210
$LN3:
  00000	48 89 54 24 10	 mov	 QWORD PTR [rsp+16], rdx
  00005	48 89 4c 24 08	 mov	 QWORD PTR [rsp+8], rcx
  0000a	57		 push	 rdi
; Line 211
  0000b	48 8b 44 24 10	 mov	 rax, QWORD PTR this$[rsp]
  00010	48 8b 00	 mov	 rax, QWORD PTR [rax]
  00013	48 8b 4c 24 18	 mov	 rcx, QWORD PTR __$ReturnUdt$[rsp]
  00018	48 89 01	 mov	 QWORD PTR [rcx], rax
  0001b	48 8b 44 24 18	 mov	 rax, QWORD PTR __$ReturnUdt$[rsp]
; Line 212
  00020	5f		 pop	 rdi
  00021	c3		 ret	 0
?time_since_epoch@?$time_point@Usteady_clock@chrono@std@@V?$duration@_JU?$ratio@$00$0DLJKMKAA@@std@@@23@@chrono@std@@QEBA?AV?$duration@_JU?$ratio@$00$0DLJKMKAA@@std@@@23@XZ ENDP ; std::chrono::time_point<std::chrono::steady_clock,std::chrono::duration<__int64,std::ratio<1,1000000000> > >::time_since_epoch
_TEXT	ENDS
; Function compile flags: /Odtp /RTCsu
;	COMDAT ??0?$time_point@Usteady_clock@chrono@std@@V?$duration@_JU?$ratio@$00$0DLJKMKAA@@std@@@23@@chrono@std@@QEAA@AEBV?$duration@_JU?$ratio@$00$0DLJKMKAA@@std@@@12@@Z
_TEXT	SEGMENT
this$ = 16
_Other$ = 24
??0?$time_point@Usteady_clock@chrono@std@@V?$duration@_JU?$ratio@$00$0DLJKMKAA@@std@@@23@@chrono@std@@QEAA@AEBV?$duration@_JU?$ratio@$00$0DLJKMKAA@@std@@@12@@Z PROC ; std::chrono::time_point<std::chrono::steady_clock,std::chrono::duration<__int64,std::ratio<1,1000000000> > >::time_point<std::chrono::steady_clock,std::chrono::duration<__int64,std::ratio<1,1000000000> > >, COMDAT
; File C:\Program Files\Microsoft Visual Studio\2022\Community\VC\Tools\MSVC\14.38.33130\include\__msvc_chrono.hpp
; Line 202
$LN3:
  00000	48 89 54 24 10	 mov	 QWORD PTR [rsp+16], rdx
  00005	48 89 4c 24 08	 mov	 QWORD PTR [rsp+8], rcx
  0000a	57		 push	 rdi
; Line 203
  0000b	48 8b 44 24 18	 mov	 rax, QWORD PTR _Other$[rsp]
  00010	48 8b 00	 mov	 rax, QWORD PTR [rax]
  00013	48 8b 4c 24 10	 mov	 rcx, QWORD PTR this$[rsp]
  00018	48 89 01	 mov	 QWORD PTR [rcx], rax
  0001b	48 8b 44 24 10	 mov	 rax, QWORD PTR this$[rsp]
  00020	5f		 pop	 rdi
  00021	c3		 ret	 0
??0?$time_point@Usteady_clock@chrono@std@@V?$duration@_JU?$ratio@$00$0DLJKMKAA@@std@@@23@@chrono@std@@QEAA@AEBV?$duration@_JU?$ratio@$00$0DLJKMKAA@@std@@@12@@Z ENDP ; std::chrono::time_point<std::chrono::steady_clock,std::chrono::duration<__int64,std::ratio<1,1000000000> > >::time_point<std::chrono::steady_clock,std::chrono::duration<__int64,std::ratio<1,1000000000> > >
_TEXT	ENDS
; Function compile flags: /Odtp /RTCsu
;	COMDAT ??Z?$duration@_JU?$ratio@$00$0DLJKMKAA@@std@@@chrono@std@@QEAAAEAV012@AEBV012@@Z
_TEXT	SEGMENT
this$ = 16
_Right$ = 24
??Z?$duration@_JU?$ratio@$00$0DLJKMKAA@@std@@@chrono@std@@QEAAAEAV012@AEBV012@@Z PROC ; std::chrono::duration<__int64,std::ratio<1,1000000000> >::operator-=, COMDAT
; File C:\Program Files\Microsoft Visual Studio\2022\Community\VC\Tools\MSVC\14.38.33130\include\__msvc_chrono.hpp
; Line 145
$LN3:
  00000	48 89 54 24 10	 mov	 QWORD PTR [rsp+16], rdx
  00005	48 89 4c 24 08	 mov	 QWORD PTR [rsp+8], rcx
  0000a	57		 push	 rdi
; Line 146
  0000b	48 8b 44 24 10	 mov	 rax, QWORD PTR this$[rsp]
  00010	48 8b 4c 24 18	 mov	 rcx, QWORD PTR _Right$[rsp]
  00015	48 8b 09	 mov	 rcx, QWORD PTR [rcx]
  00018	48 8b 00	 mov	 rax, QWORD PTR [rax]
  0001b	48 2b c1	 sub	 rax, rcx
  0001e	48 8b 4c 24 10	 mov	 rcx, QWORD PTR this$[rsp]
  00023	48 89 01	 mov	 QWORD PTR [rcx], rax
; Line 147
  00026	48 8b 44 24 10	 mov	 rax, QWORD PTR this$[rsp]
; Line 148
  0002b	5f		 pop	 rdi
  0002c	c3		 ret	 0
??Z?$duration@_JU?$ratio@$00$0DLJKMKAA@@std@@@chrono@std@@QEAAAEAV012@AEBV012@@Z ENDP ; std::chrono::duration<__int64,std::ratio<1,1000000000> >::operator-=
_TEXT	ENDS
; Function compile flags: /Odtp /RTCsu
;	COMDAT ??Y?$duration@_JU?$ratio@$00$0DLJKMKAA@@std@@@chrono@std@@QEAAAEAV012@AEBV012@@Z
_TEXT	SEGMENT
this$ = 16
_Right$ = 24
??Y?$duration@_JU?$ratio@$00$0DLJKMKAA@@std@@@chrono@std@@QEAAAEAV012@AEBV012@@Z PROC ; std::chrono::duration<__int64,std::ratio<1,1000000000> >::operator+=, COMDAT
; File C:\Program Files\Microsoft Visual Studio\2022\Community\VC\Tools\MSVC\14.38.33130\include\__msvc_chrono.hpp
; Line 140
$LN3:
  00000	48 89 54 24 10	 mov	 QWORD PTR [rsp+16], rdx
  00005	48 89 4c 24 08	 mov	 QWORD PTR [rsp+8], rcx
  0000a	57		 push	 rdi
; Line 141
  0000b	48 8b 44 24 10	 mov	 rax, QWORD PTR this$[rsp]
  00010	48 8b 00	 mov	 rax, QWORD PTR [rax]
  00013	48 8b 4c 24 18	 mov	 rcx, QWORD PTR _Right$[rsp]
  00018	48 03 01	 add	 rax, QWORD PTR [rcx]
  0001b	48 8b 4c 24 10	 mov	 rcx, QWORD PTR this$[rsp]
  00020	48 89 01	 mov	 QWORD PTR [rcx], rax
; Line 142
  00023	48 8b 44 24 10	 mov	 rax, QWORD PTR this$[rsp]
; Line 143
  00028	5f		 pop	 rdi
  00029	c3		 ret	 0
??Y?$duration@_JU?$ratio@$00$0DLJKMKAA@@std@@@chrono@std@@QEAAAEAV012@AEBV012@@Z ENDP ; std::chrono::duration<__int64,std::ratio<1,1000000000> >::operator+=
_TEXT	ENDS
; Function compile flags: /Odtp /RTCsu
;	COMDAT ?count@?$duration@_JU?$ratio@$00$0DLJKMKAA@@std@@@chrono@std@@QEBA_JXZ
_TEXT	SEGMENT
this$ = 16
?count@?$duration@_JU?$ratio@$00$0DLJKMKAA@@std@@@chrono@std@@QEBA_JXZ PROC ; std::chrono::duration<__int64,std::ratio<1,1000000000> >::count, COMDAT
; File C:\Program Files\Microsoft Visual Studio\2022\Community\VC\Tools\MSVC\14.38.33130\include\__msvc_chrono.hpp
; Line 108
$LN3:
  00000	48 89 4c 24 08	 mov	 QWORD PTR [rsp+8], rcx
  00005	57		 push	 rdi
; Line 109
  00006	48 8b 44 24 10	 mov	 rax, QWORD PTR this$[rsp]
  0000b	48 8b 00	 mov	 rax, QWORD PTR [rax]
; Line 110
  0000e	5f		 pop	 rdi
  0000f	c3		 ret	 0
?count@?$duration@_JU?$ratio@$00$0DLJKMKAA@@std@@@chrono@std@@QEBA_JXZ ENDP ; std::chrono::duration<__int64,std::ratio<1,1000000000> >::count
_TEXT	ENDS
; Function compile flags: /Odtp /RTCsu
;	COMDAT ?now@steady_clock@chrono@std@@SA?AV?$time_point@Usteady_clock@chrono@std@@V?$duration@_JU?$ratio@$00$0DLJKMKAA@@std@@@23@@23@XZ
_TEXT	SEGMENT
_Freq$ = 32
_Ctr$ = 40
_TenMHz$ = 48
_TwentyFourMHz$ = 56
_Multiplier$1 = 64
_Whole$2 = 72
_Part$3 = 80
_Whole$4 = 88
_Part$5 = 96
$T6 = 104
$T7 = 112
$T8 = 120
$T9 = 128
$T10 = 136
$T11 = 144
__$ReturnUdt$ = 176
?now@steady_clock@chrono@std@@SA?AV?$time_point@Usteady_clock@chrono@std@@V?$duration@_JU?$ratio@$00$0DLJKMKAA@@std@@@23@@23@XZ PROC ; std::chrono::steady_clock::now, COMDAT
; File C:\Program Files\Microsoft Visual Studio\2022\Community\VC\Tools\MSVC\14.38.33130\include\__msvc_chrono.hpp
; Line 678
$LN7:
  00000	48 89 4c 24 08	 mov	 QWORD PTR [rsp+8], rcx
  00005	57		 push	 rdi
  00006	48 81 ec a0 00
	00 00		 sub	 rsp, 160		; 000000a0H
; Line 679
  0000d	e8 00 00 00 00	 call	 _Query_perf_frequency
  00012	48 89 44 24 20	 mov	 QWORD PTR _Freq$[rsp], rax
; Line 680
  00017	e8 00 00 00 00	 call	 _Query_perf_counter
  0001c	48 89 44 24 28	 mov	 QWORD PTR _Ctr$[rsp], rax
; Line 684
  00021	48 c7 44 24 30
	80 96 98 00	 mov	 QWORD PTR _TenMHz$[rsp], 10000000 ; 00989680H
; Line 685
  0002a	48 c7 44 24 38
	00 36 6e 01	 mov	 QWORD PTR _TwentyFourMHz$[rsp], 24000000 ; 016e3600H
; Line 687
  00033	48 81 7c 24 20
	80 96 98 00	 cmp	 QWORD PTR _Freq$[rsp], 10000000 ; 00989680H
  0003c	75 45		 jne	 SHORT $LN2@now
; Line 692
  0003e	48 c7 44 24 40
	64 00 00 00	 mov	 QWORD PTR _Multiplier$1[rsp], 100 ; 00000064H
; Line 693
  00047	48 6b 44 24 28
	64		 imul	 rax, QWORD PTR _Ctr$[rsp], 100 ; 00000064H
  0004d	48 89 44 24 70	 mov	 QWORD PTR $T7[rsp], rax
  00052	48 8d 54 24 70	 lea	 rdx, QWORD PTR $T7[rsp]
  00057	48 8d 4c 24 68	 lea	 rcx, QWORD PTR $T6[rsp]
  0005c	e8 00 00 00 00	 call	 ??$?0_J$0A@@?$duration@_JU?$ratio@$00$0DLJKMKAA@@std@@@chrono@std@@QEAA@AEB_J@Z ; std::chrono::duration<__int64,std::ratio<1,1000000000> >::duration<__int64,std::ratio<1,1000000000> ><__int64,0>
  00061	48 8b d0	 mov	 rdx, rax
  00064	48 8b 8c 24 b0
	00 00 00	 mov	 rcx, QWORD PTR __$ReturnUdt$[rsp]
  0006c	e8 00 00 00 00	 call	 ??0?$time_point@Usteady_clock@chrono@std@@V?$duration@_JU?$ratio@$00$0DLJKMKAA@@std@@@23@@chrono@std@@QEAA@AEBV?$duration@_JU?$ratio@$00$0DLJKMKAA@@std@@@12@@Z ; std::chrono::time_point<std::chrono::steady_clock,std::chrono::duration<__int64,std::ratio<1,1000000000> > >::time_point<std::chrono::steady_clock,std::chrono::duration<__int64,std::ratio<1,1000000000> > >
  00071	48 8b 84 24 b0
	00 00 00	 mov	 rax, QWORD PTR __$ReturnUdt$[rsp]
  00079	e9 1f 01 00 00	 jmp	 $LN1@now
  0007e	e9 1a 01 00 00	 jmp	 $LN1@now
$LN2@now:
; Line 694
  00083	48 81 7c 24 20
	00 36 6e 01	 cmp	 QWORD PTR _Freq$[rsp], 24000000 ; 016e3600H
  0008c	0f 85 8c 00 00
	00		 jne	 $LN4@now
; Line 696
  00092	48 8b 44 24 28	 mov	 rax, QWORD PTR _Ctr$[rsp]
  00097	48 99		 cdq
  00099	b9 00 36 6e 01	 mov	 ecx, 24000000		; 016e3600H
  0009e	48 f7 f9	 idiv	 rcx
  000a1	48 69 c0 00 ca
	9a 3b		 imul	 rax, rax, 1000000000	; 3b9aca00H
  000a8	48 89 44 24 48	 mov	 QWORD PTR _Whole$2[rsp], rax
; Line 697
  000ad	48 8b 44 24 28	 mov	 rax, QWORD PTR _Ctr$[rsp]
  000b2	48 99		 cdq
  000b4	b9 00 36 6e 01	 mov	 ecx, 24000000		; 016e3600H
  000b9	48 f7 f9	 idiv	 rcx
  000bc	48 8b c2	 mov	 rax, rdx
  000bf	48 69 c0 00 ca
	9a 3b		 imul	 rax, rax, 1000000000	; 3b9aca00H
  000c6	48 99		 cdq
  000c8	b9 00 36 6e 01	 mov	 ecx, 24000000		; 016e3600H
  000cd	48 f7 f9	 idiv	 rcx
  000d0	48 89 44 24 50	 mov	 QWORD PTR _Part$3[rsp], rax
; Line 698
  000d5	48 8b 44 24 50	 mov	 rax, QWORD PTR _Part$3[rsp]
  000da	48 8b 4c 24 48	 mov	 rcx, QWORD PTR _Whole$2[rsp]
  000df	48 03 c8	 add	 rcx, rax
  000e2	48 8b c1	 mov	 rax, rcx
  000e5	48 89 84 24 80
	00 00 00	 mov	 QWORD PTR $T9[rsp], rax
  000ed	48 8d 94 24 80
	00 00 00	 lea	 rdx, QWORD PTR $T9[rsp]
  000f5	48 8d 4c 24 78	 lea	 rcx, QWORD PTR $T8[rsp]
  000fa	e8 00 00 00 00	 call	 ??$?0_J$0A@@?$duration@_JU?$ratio@$00$0DLJKMKAA@@std@@@chrono@std@@QEAA@AEB_J@Z ; std::chrono::duration<__int64,std::ratio<1,1000000000> >::duration<__int64,std::ratio<1,1000000000> ><__int64,0>
  000ff	48 8b d0	 mov	 rdx, rax
  00102	48 8b 8c 24 b0
	00 00 00	 mov	 rcx, QWORD PTR __$ReturnUdt$[rsp]
  0010a	e8 00 00 00 00	 call	 ??0?$time_point@Usteady_clock@chrono@std@@V?$duration@_JU?$ratio@$00$0DLJKMKAA@@std@@@23@@chrono@std@@QEAA@AEBV?$duration@_JU?$ratio@$00$0DLJKMKAA@@std@@@12@@Z ; std::chrono::time_point<std::chrono::steady_clock,std::chrono::duration<__int64,std::ratio<1,1000000000> > >::time_point<std::chrono::steady_clock,std::chrono::duration<__int64,std::ratio<1,1000000000> > >
  0010f	48 8b 84 24 b0
	00 00 00	 mov	 rax, QWORD PTR __$ReturnUdt$[rsp]
  00117	e9 81 00 00 00	 jmp	 $LN1@now
; Line 699
  0011c	eb 7f		 jmp	 SHORT $LN1@now
$LN4@now:
; Line 705
  0011e	48 8b 44 24 28	 mov	 rax, QWORD PTR _Ctr$[rsp]
  00123	48 99		 cdq
  00125	48 f7 7c 24 20	 idiv	 QWORD PTR _Freq$[rsp]
  0012a	48 69 c0 00 ca
	9a 3b		 imul	 rax, rax, 1000000000	; 3b9aca00H
  00131	48 89 44 24 58	 mov	 QWORD PTR _Whole$4[rsp], rax
; Line 706
  00136	48 8b 44 24 28	 mov	 rax, QWORD PTR _Ctr$[rsp]
  0013b	48 99		 cdq
  0013d	48 f7 7c 24 20	 idiv	 QWORD PTR _Freq$[rsp]
  00142	48 8b c2	 mov	 rax, rdx
  00145	48 69 c0 00 ca
	9a 3b		 imul	 rax, rax, 1000000000	; 3b9aca00H
  0014c	48 99		 cdq
  0014e	48 f7 7c 24 20	 idiv	 QWORD PTR _Freq$[rsp]
  00153	48 89 44 24 60	 mov	 QWORD PTR _Part$5[rsp], rax
; Line 707
  00158	48 8b 44 24 60	 mov	 rax, QWORD PTR _Part$5[rsp]
  0015d	48 8b 4c 24 58	 mov	 rcx, QWORD PTR _Whole$4[rsp]
  00162	48 03 c8	 add	 rcx, rax
  00165	48 8b c1	 mov	 rax, rcx
  00168	48 89 84 24 90
	00 00 00	 mov	 QWORD PTR $T11[rsp], rax
  00170	48 8d 94 24 90
	00 00 00	 lea	 rdx, QWORD PTR $T11[rsp]
  00178	48 8d 8c 24 88
	00 00 00	 lea	 rcx, QWORD PTR $T10[rsp]
  00180	e8 00 00 00 00	 call	 ??$?0_J$0A@@?$duration@_JU?$ratio@$00$0DLJKMKAA@@std@@@chrono@std@@QEAA@AEB_J@Z ; std::chrono::duration<__int64,std::ratio<1,1000000000> >::duration<__int64,std::ratio<1,1000000000> ><__int64,0>
  00185	48 8b d0	 mov	 rdx, rax
  00188	48 8b 8c 24 b0
	00 00 00	 mov	 rcx, QWORD PTR __$ReturnUdt$[rsp]
  00190	e8 00 00 00 00	 call	 ??0?$time_point@Usteady_clock@chrono@std@@V?$duration@_JU?$ratio@$00$0DLJKMKAA@@std@@@23@@chrono@std@@QEAA@AEBV?$duration@_JU?$ratio@$00$0DLJKMKAA@@std@@@12@@Z ; std::chrono::time_point<std::chrono::steady_clock,std::chrono::duration<__int64,std::ratio<1,1000000000> > >::time_point<std::chrono::steady_clock,std::chrono::duration<__int64,std::ratio<1,1000000000> > >
  00195	48 8b 84 24 b0
	00 00 00	 mov	 rax, QWORD PTR __$ReturnUdt$[rsp]
$LN1@now:
; Line 710
  0019d	48 81 c4 a0 00
	00 00		 add	 rsp, 160		; 000000a0H
  001a4	5f		 pop	 rdi
  001a5	c3		 ret	 0
?now@steady_clock@chrono@std@@SA?AV?$time_point@Usteady_clock@chrono@std@@V?$duration@_JU?$ratio@$00$0DLJKMKAA@@std@@@23@@23@XZ ENDP ; std::chrono::steady_clock::now
_TEXT	ENDS
; Function compile flags: /Odtp /RTCsu
;	COMDAT ??$?0_J$0A@@?$duration@_JU?$ratio@$00$00@std@@@chrono@std@@QEAA@AEB_J@Z
_TEXT	SEGMENT
this$ = 16
_Val$ = 24
??$?0_J$0A@@?$duration@_JU?$ratio@$00$00@std@@@chrono@std@@QEAA@AEB_J@Z PROC ; std::chrono::duration<__int64,std::ratio<1,1> >::duration<__int64,std::ratio<1,1> ><__int64,0>, COMDAT
; File C:\Program Files\Microsoft Visual Studio\2022\Community\VC\Tools\MSVC\14.38.33130\include\__msvc_chrono.hpp
; Line 98
$LN3:
  00000	48 89 54 24 10	 mov	 QWORD PTR [rsp+16], rdx
  00005	48 89 4c 24 08	 mov	 QWORD PTR [rsp+8], rcx
  0000a	57		 push	 rdi
  0000b	48 8b 44 24 10	 mov	 rax, QWORD PTR this$[rsp]
  00010	48 8b 4c 24 18	 mov	 rcx, QWORD PTR _Val$[rsp]
  00015	48 8b 09	 mov	 rcx, QWORD PTR [rcx]
  00018	48 89 08	 mov	 QWORD PTR [rax], rcx
  0001b	48 8b 44 24 10	 mov	 rax, QWORD PTR this$[rsp]
  00020	5f		 pop	 rdi
  00021	c3		 ret	 0
??$?0_J$0A@@?$duration@_JU?$ratio@$00$00@std@@@chrono@std@@QEAA@AEB_J@Z ENDP ; std::chrono::duration<__int64,std::ratio<1,1> >::duration<__int64,std::ratio<1,1> ><__int64,0>
_TEXT	ENDS
; Function compile flags: /Odtp /RTCsu
;	COMDAT ?count@?$duration@_JU?$ratio@$00$00@std@@@chrono@std@@QEBA_JXZ
_TEXT	SEGMENT
this$ = 16
?count@?$duration@_JU?$ratio@$00$00@std@@@chrono@std@@QEBA_JXZ PROC ; std::chrono::duration<__int64,std::ratio<1,1> >::count, COMDAT
; File C:\Program Files\Microsoft Visual Studio\2022\Community\VC\Tools\MSVC\14.38.33130\include\__msvc_chrono.hpp
; Line 108
$LN3:
  00000	48 89 4c 24 08	 mov	 QWORD PTR [rsp+8], rcx
  00005	57		 push	 rdi
; Line 109
  00006	48 8b 44 24 10	 mov	 rax, QWORD PTR this$[rsp]
  0000b	48 8b 00	 mov	 rax, QWORD PTR [rax]
; Line 110
  0000e	5f		 pop	 rdi
  0000f	c3		 ret	 0
?count@?$duration@_JU?$ratio@$00$00@std@@@chrono@std@@QEBA_JXZ ENDP ; std::chrono::duration<__int64,std::ratio<1,1> >::count
_TEXT	ENDS
; Function compile flags: /Odtp /RTCsu
;	COMDAT ??$?0_J$0A@@?$duration@_JU?$ratio@$00$0JIJGIA@@std@@@chrono@std@@QEAA@AEB_J@Z
_TEXT	SEGMENT
this$ = 16
_Val$ = 24
??$?0_J$0A@@?$duration@_JU?$ratio@$00$0JIJGIA@@std@@@chrono@std@@QEAA@AEB_J@Z PROC ; std::chrono::duration<__int64,std::ratio<1,10000000> >::duration<__int64,std::ratio<1,10000000> ><__int64,0>, COMDAT
; File C:\Program Files\Microsoft Visual Studio\2022\Community\VC\Tools\MSVC\14.38.33130\include\__msvc_chrono.hpp
; Line 98
$LN3:
  00000	48 89 54 24 10	 mov	 QWORD PTR [rsp+16], rdx
  00005	48 89 4c 24 08	 mov	 QWORD PTR [rsp+8], rcx
  0000a	57		 push	 rdi
  0000b	48 8b 44 24 10	 mov	 rax, QWORD PTR this$[rsp]
  00010	48 8b 4c 24 18	 mov	 rcx, QWORD PTR _Val$[rsp]
  00015	48 8b 09	 mov	 rcx, QWORD PTR [rcx]
  00018	48 89 08	 mov	 QWORD PTR [rax], rcx
  0001b	48 8b 44 24 10	 mov	 rax, QWORD PTR this$[rsp]
  00020	5f		 pop	 rdi
  00021	c3		 ret	 0
??$?0_J$0A@@?$duration@_JU?$ratio@$00$0JIJGIA@@std@@@chrono@std@@QEAA@AEB_J@Z ENDP ; std::chrono::duration<__int64,std::ratio<1,10000000> >::duration<__int64,std::ratio<1,10000000> ><__int64,0>
_TEXT	ENDS
; Function compile flags: /Odtp /RTCsu
;	COMDAT ?count@?$duration@_JU?$ratio@$00$0JIJGIA@@std@@@chrono@std@@QEBA_JXZ
_TEXT	SEGMENT
this$ = 16
?count@?$duration@_JU?$ratio@$00$0JIJGIA@@std@@@chrono@std@@QEBA_JXZ PROC ; std::chrono::duration<__int64,std::ratio<1,10000000> >::count, COMDAT
; File C:\Program Files\Microsoft Visual Studio\2022\Community\VC\Tools\MSVC\14.38.33130\include\__msvc_chrono.hpp
; Line 108
$LN3:
  00000	48 89 4c 24 08	 mov	 QWORD PTR [rsp+8], rcx
  00005	57		 push	 rdi
; Line 109
  00006	48 8b 44 24 10	 mov	 rax, QWORD PTR this$[rsp]
  0000b	48 8b 00	 mov	 rax, QWORD PTR [rax]
; Line 110
  0000e	5f		 pop	 rdi
  0000f	c3		 ret	 0
?count@?$duration@_JU?$ratio@$00$0JIJGIA@@std@@@chrono@std@@QEBA_JXZ ENDP ; std::chrono::duration<__int64,std::ratio<1,10000000> >::count
_TEXT	ENDS
; Function compile flags: /Odtp /RTCsu
;	COMDAT ?eof@?$_Narrow_char_traits@DH@std@@SAHXZ
_TEXT	SEGMENT
?eof@?$_Narrow_char_traits@DH@std@@SAHXZ PROC		; std::_Narrow_char_traits<char,int>::eof, COMDAT
; File C:\Program Files\Microsoft Visual Studio\2022\Community\VC\Tools\MSVC\14.38.33130\include\xstring
; Line 471
$LN3:
  00000	40 57		 push	 rdi
; Line 472
  00002	b8 ff ff ff ff	 mov	 eax, -1
; Line 473
  00007	5f		 pop	 rdi
  00008	c3		 ret	 0
?eof@?$_Narrow_char_traits@DH@std@@SAHXZ ENDP		; std::_Narrow_char_traits<char,int>::eof
_TEXT	ENDS
; Function compile flags: /Odtp /RTCsu
;	COMDAT ?eq_int_type@?$_Narrow_char_traits@DH@std@@SA_NHH@Z
_TEXT	SEGMENT
tv65 = 0
_Left$ = 32
_Right$ = 40
?eq_int_type@?$_Narrow_char_traits@DH@std@@SA_NHH@Z PROC ; std::_Narrow_char_traits<char,int>::eq_int_type, COMDAT
; File C:\Program Files\Microsoft Visual Studio\2022\Community\VC\Tools\MSVC\14.38.33130\include\xstring
; Line 463
$LN5:
  00000	89 54 24 10	 mov	 DWORD PTR [rsp+16], edx
  00004	89 4c 24 08	 mov	 DWORD PTR [rsp+8], ecx
  00008	57		 push	 rdi
  00009	48 83 ec 10	 sub	 rsp, 16
; Line 464
  0000d	8b 44 24 28	 mov	 eax, DWORD PTR _Right$[rsp]
  00011	39 44 24 20	 cmp	 DWORD PTR _Left$[rsp], eax
  00015	75 09		 jne	 SHORT $LN3@eq_int_typ
  00017	c7 04 24 01 00
	00 00		 mov	 DWORD PTR tv65[rsp], 1
  0001e	eb 07		 jmp	 SHORT $LN4@eq_int_typ
$LN3@eq_int_typ:
  00020	c7 04 24 00 00
	00 00		 mov	 DWORD PTR tv65[rsp], 0
$LN4@eq_int_typ:
  00027	0f b6 04 24	 movzx	 eax, BYTE PTR tv65[rsp]
; Line 465
  0002b	48 83 c4 10	 add	 rsp, 16
  0002f	5f		 pop	 rdi
  00030	c3		 ret	 0
?eq_int_type@?$_Narrow_char_traits@DH@std@@SA_NHH@Z ENDP ; std::_Narrow_char_traits<char,int>::eq_int_type
_TEXT	ENDS
; Function compile flags: /Odtp /RTCsu
;	COMDAT ?length@?$_Narrow_char_traits@DH@std@@SA_KQEBD@Z
_TEXT	SEGMENT
tv67 = 0
tv68 = 8
_First$ = 32
?length@?$_Narrow_char_traits@DH@std@@SA_KQEBD@Z PROC	; std::_Narrow_char_traits<char,int>::length, COMDAT
; File C:\Program Files\Microsoft Visual Studio\2022\Community\VC\Tools\MSVC\14.38.33130\include\xstring
; Line 385
$LN4:
  00000	48 89 4c 24 08	 mov	 QWORD PTR [rsp+8], rcx
  00005	57		 push	 rdi
  00006	48 83 ec 10	 sub	 rsp, 16
; Line 398
  0000a	48 8b 44 24 20	 mov	 rax, QWORD PTR _First$[rsp]
  0000f	48 89 04 24	 mov	 QWORD PTR tv67[rsp], rax
  00013	48 c7 44 24 08
	ff ff ff ff	 mov	 QWORD PTR tv68[rsp], -1
$LL3@length:
  0001c	48 ff 44 24 08	 inc	 QWORD PTR tv68[rsp]
  00021	48 8b 04 24	 mov	 rax, QWORD PTR tv67[rsp]
  00025	48 8b 4c 24 08	 mov	 rcx, QWORD PTR tv68[rsp]
  0002a	80 3c 08 00	 cmp	 BYTE PTR [rax+rcx], 0
  0002e	75 ec		 jne	 SHORT $LL3@length
  00030	48 8b 44 24 08	 mov	 rax, QWORD PTR tv68[rsp]
; Line 403
  00035	48 83 c4 10	 add	 rsp, 16
  00039	5f		 pop	 rdi
  0003a	c3		 ret	 0
?length@?$_Narrow_char_traits@DH@std@@SA_KQEBD@Z ENDP	; std::_Narrow_char_traits<char,int>::length
_TEXT	ENDS
; Function compile flags: /Odtp /RTCsu
;	COMDAT ??Nstd@@YA_NUstrong_ordering@0@U_Literal_zero@0@@Z
_TEXT	SEGMENT
tv66 = 0
_Val$ = 32
__formal$ = 40
??Nstd@@YA_NUstrong_ordering@0@U_Literal_zero@0@@Z PROC	; std::operator<=, COMDAT
; File C:\Program Files\Microsoft Visual Studio\2022\Community\VC\Tools\MSVC\14.38.33130\include\compare
; Line 203
$LN5:
  00000	88 54 24 10	 mov	 BYTE PTR [rsp+16], dl
  00004	88 4c 24 08	 mov	 BYTE PTR [rsp+8], cl
  00008	57		 push	 rdi
  00009	48 83 ec 10	 sub	 rsp, 16
; Line 204
  0000d	0f be 44 24 20	 movsx	 eax, BYTE PTR _Val$[rsp]
  00012	85 c0		 test	 eax, eax
  00014	7f 09		 jg	 SHORT $LN3@operator
  00016	c7 04 24 01 00
	00 00		 mov	 DWORD PTR tv66[rsp], 1
  0001d	eb 07		 jmp	 SHORT $LN4@operator
$LN3@operator:
  0001f	c7 04 24 00 00
	00 00		 mov	 DWORD PTR tv66[rsp], 0
$LN4@operator:
  00026	0f b6 04 24	 movzx	 eax, BYTE PTR tv66[rsp]
; Line 205
  0002a	48 83 c4 10	 add	 rsp, 16
  0002e	5f		 pop	 rdi
  0002f	c3		 ret	 0
??Nstd@@YA_NUstrong_ordering@0@U_Literal_zero@0@@Z ENDP	; std::operator<=
_TEXT	ENDS
; Function compile flags: /Odtp /RTCsu
;	COMDAT ??Ostd@@YA_NUstrong_ordering@0@U_Literal_zero@0@@Z
_TEXT	SEGMENT
tv66 = 0
_Val$ = 32
__formal$ = 40
??Ostd@@YA_NUstrong_ordering@0@U_Literal_zero@0@@Z PROC	; std::operator>, COMDAT
; File C:\Program Files\Microsoft Visual Studio\2022\Community\VC\Tools\MSVC\14.38.33130\include\compare
; Line 199
$LN5:
  00000	88 54 24 10	 mov	 BYTE PTR [rsp+16], dl
  00004	88 4c 24 08	 mov	 BYTE PTR [rsp+8], cl
  00008	57		 push	 rdi
  00009	48 83 ec 10	 sub	 rsp, 16
; Line 200
  0000d	0f be 44 24 20	 movsx	 eax, BYTE PTR _Val$[rsp]
  00012	85 c0		 test	 eax, eax
  00014	7e 09		 jle	 SHORT $LN3@operator
  00016	c7 04 24 01 00
	00 00		 mov	 DWORD PTR tv66[rsp], 1
  0001d	eb 07		 jmp	 SHORT $LN4@operator
$LN3@operator:
  0001f	c7 04 24 00 00
	00 00		 mov	 DWORD PTR tv66[rsp], 0
$LN4@operator:
  00026	0f b6 04 24	 movzx	 eax, BYTE PTR tv66[rsp]
; Line 201
  0002a	48 83 c4 10	 add	 rsp, 16
  0002e	5f		 pop	 rdi
  0002f	c3		 ret	 0
??Ostd@@YA_NUstrong_ordering@0@U_Literal_zero@0@@Z ENDP	; std::operator>
_TEXT	ENDS
; Function compile flags: /Odtp /RTCsu
;	COMDAT ??Mstd@@YA_NUstrong_ordering@0@U_Literal_zero@0@@Z
_TEXT	SEGMENT
tv66 = 0
_Val$ = 32
__formal$ = 40
??Mstd@@YA_NUstrong_ordering@0@U_Literal_zero@0@@Z PROC	; std::operator<, COMDAT
; File C:\Program Files\Microsoft Visual Studio\2022\Community\VC\Tools\MSVC\14.38.33130\include\compare
; Line 195
$LN5:
  00000	88 54 24 10	 mov	 BYTE PTR [rsp+16], dl
  00004	88 4c 24 08	 mov	 BYTE PTR [rsp+8], cl
  00008	57		 push	 rdi
  00009	48 83 ec 10	 sub	 rsp, 16
; Line 196
  0000d	0f be 44 24 20	 movsx	 eax, BYTE PTR _Val$[rsp]
  00012	85 c0		 test	 eax, eax
  00014	7d 09		 jge	 SHORT $LN3@operator
  00016	c7 04 24 01 00
	00 00		 mov	 DWORD PTR tv66[rsp], 1
  0001d	eb 07		 jmp	 SHORT $LN4@operator
$LN3@operator:
  0001f	c7 04 24 00 00
	00 00		 mov	 DWORD PTR tv66[rsp], 0
$LN4@operator:
  00026	0f b6 04 24	 movzx	 eax, BYTE PTR tv66[rsp]
; Line 197
  0002a	48 83 c4 10	 add	 rsp, 16
  0002e	5f		 pop	 rdi
  0002f	c3		 ret	 0
??Mstd@@YA_NUstrong_ordering@0@U_Literal_zero@0@@Z ENDP	; std::operator<
_TEXT	ENDS
; Function compile flags: /Odtp /RTCsu
;	COMDAT ??Mstd@@YA_NUpartial_ordering@0@U_Literal_zero@0@@Z
_TEXT	SEGMENT
tv66 = 0
_Val$ = 32
__formal$ = 40
??Mstd@@YA_NUpartial_ordering@0@U_Literal_zero@0@@Z PROC ; std::operator<, COMDAT
; File C:\Program Files\Microsoft Visual Studio\2022\Community\VC\Tools\MSVC\14.38.33130\include\compare
; Line 59
$LN5:
  00000	88 54 24 10	 mov	 BYTE PTR [rsp+16], dl
  00004	88 4c 24 08	 mov	 BYTE PTR [rsp+8], cl
  00008	57		 push	 rdi
  00009	48 83 ec 10	 sub	 rsp, 16
; Line 60
  0000d	0f be 44 24 20	 movsx	 eax, BYTE PTR _Val$[rsp]
  00012	83 f8 ff	 cmp	 eax, -1
  00015	75 09		 jne	 SHORT $LN3@operator
  00017	c7 04 24 01 00
	00 00		 mov	 DWORD PTR tv66[rsp], 1
  0001e	eb 07		 jmp	 SHORT $LN4@operator
$LN3@operator:
  00020	c7 04 24 00 00
	00 00		 mov	 DWORD PTR tv66[rsp], 0
$LN4@operator:
  00027	0f b6 04 24	 movzx	 eax, BYTE PTR tv66[rsp]
; Line 61
  0002b	48 83 c4 10	 add	 rsp, 16
  0002f	5f		 pop	 rdi
  00030	c3		 ret	 0
??Mstd@@YA_NUpartial_ordering@0@U_Literal_zero@0@@Z ENDP ; std::operator<
_TEXT	ENDS
; Function compile flags: /Odtp /RTCsu
;	COMDAT ?__empty_global_delete@@YAXPEAX_KW4align_val_t@std@@@Z
_TEXT	SEGMENT
__formal$ = 16
__formal$ = 24
__formal$ = 32
?__empty_global_delete@@YAXPEAX_KW4align_val_t@std@@@Z PROC ; __empty_global_delete, COMDAT
; File C:\Users\batma\Desktop\FIghtClub\Source\main.cpp
; Line 54
$LN3:
  00000	4c 89 44 24 18	 mov	 QWORD PTR [rsp+24], r8
  00005	48 89 54 24 10	 mov	 QWORD PTR [rsp+16], rdx
  0000a	48 89 4c 24 08	 mov	 QWORD PTR [rsp+8], rcx
  0000f	57		 push	 rdi
  00010	5f		 pop	 rdi
  00011	c3		 ret	 0
?__empty_global_delete@@YAXPEAX_KW4align_val_t@std@@@Z ENDP ; __empty_global_delete
_TEXT	ENDS
; Function compile flags: /Odtp /RTCsu
;	COMDAT ?__empty_global_delete@@YAXPEAXW4align_val_t@std@@@Z
_TEXT	SEGMENT
__formal$ = 16
__formal$ = 24
?__empty_global_delete@@YAXPEAXW4align_val_t@std@@@Z PROC ; __empty_global_delete, COMDAT
; File C:\Users\batma\Desktop\FIghtClub\Source\main.cpp
; Line 54
$LN3:
  00000	48 89 54 24 10	 mov	 QWORD PTR [rsp+16], rdx
  00005	48 89 4c 24 08	 mov	 QWORD PTR [rsp+8], rcx
  0000a	57		 push	 rdi
  0000b	5f		 pop	 rdi
  0000c	c3		 ret	 0
?__empty_global_delete@@YAXPEAXW4align_val_t@std@@@Z ENDP ; __empty_global_delete
_TEXT	ENDS
; Function compile flags: /Odtp /RTCsu
;	COMDAT ?__empty_global_delete@@YAXPEAX_K@Z
_TEXT	SEGMENT
__formal$ = 16
__formal$ = 24
?__empty_global_delete@@YAXPEAX_K@Z PROC		; __empty_global_delete, COMDAT
; File C:\Users\batma\Desktop\FIghtClub\Source\main.cpp
; Line 54
$LN3:
  00000	48 89 54 24 10	 mov	 QWORD PTR [rsp+16], rdx
  00005	48 89 4c 24 08	 mov	 QWORD PTR [rsp+8], rcx
  0000a	57		 push	 rdi
  0000b	5f		 pop	 rdi
  0000c	c3		 ret	 0
?__empty_global_delete@@YAXPEAX_K@Z ENDP		; __empty_global_delete
_TEXT	ENDS
; Function compile flags: /Odtp /RTCsu
;	COMDAT ?__empty_global_delete@@YAXPEAX@Z
_TEXT	SEGMENT
__formal$ = 16
?__empty_global_delete@@YAXPEAX@Z PROC			; __empty_global_delete, COMDAT
; File C:\Users\batma\Desktop\FIghtClub\Source\main.cpp
; Line 54
$LN3:
  00000	48 89 4c 24 08	 mov	 QWORD PTR [rsp+8], rcx
  00005	57		 push	 rdi
  00006	5f		 pop	 rdi
  00007	c3		 ret	 0
?__empty_global_delete@@YAXPEAX@Z ENDP			; __empty_global_delete
_TEXT	ENDS
END
