; Listing generated by Microsoft (R) Optimizing Compiler Version 19.38.33144.0 

include listing.inc

INCLUDELIB MSVCRTD
INCLUDELIB OLDNAMES

PUBLIC	??0Weapon@@QEAA@H@Z				; Weapon::Weapon
PUBLIC	?fire@Weapon@@QEAA_NXZ				; Weapon::fire
PUBLIC	?damage@Weapon@@QEBAHXZ				; Weapon::damage
EXTRN	?randomInt@LifeExe@@YAHHH@Z:PROC		; LifeExe::randomInt
EXTRN	_RTC_InitBase:PROC
EXTRN	_RTC_Shutdown:PROC
pdata	SEGMENT
$pdata$??0Weapon@@QEAA@H@Z DD imagerel $LN3
	DD	imagerel $LN3+28
	DD	imagerel $unwind$??0Weapon@@QEAA@H@Z
$pdata$?fire@Weapon@@QEAA_NXZ DD imagerel $LN4
	DD	imagerel $LN4+40
	DD	imagerel $unwind$?fire@Weapon@@QEAA_NXZ
$pdata$?damage@Weapon@@QEBAHXZ DD imagerel $LN3
	DD	imagerel $LN3+31
	DD	imagerel $unwind$?damage@Weapon@@QEBAHXZ
pdata	ENDS
;	COMDAT rtc$TMZ
rtc$TMZ	SEGMENT
_RTC_Shutdown.rtc$TMZ DQ FLAT:_RTC_Shutdown
rtc$TMZ	ENDS
;	COMDAT rtc$IMZ
rtc$IMZ	SEGMENT
_RTC_InitBase.rtc$IMZ DQ FLAT:_RTC_InitBase
rtc$IMZ	ENDS
xdata	SEGMENT
$unwind$??0Weapon@@QEAA@H@Z DD 010a01H
	DD	0700aH
$unwind$?fire@Weapon@@QEAA_NXZ DD 010601H
	DD	07006H
$unwind$?damage@Weapon@@QEBAHXZ DD 020a01H
	DD	07006320aH
xdata	ENDS
; Function compile flags: /Odtp /RTCsu
_TEXT	SEGMENT
this$ = 48
?damage@Weapon@@QEBAHXZ PROC				; Weapon::damage
; File C:\Users\batma\Desktop\FIghtClub\Source\Game\Weapon.cpp
; Line 15
$LN3:
  00000	48 89 4c 24 08	 mov	 QWORD PTR [rsp+8], rcx
  00005	57		 push	 rdi
  00006	48 83 ec 20	 sub	 rsp, 32			; 00000020H
; Line 16
  0000a	ba 28 00 00 00	 mov	 edx, 40			; 00000028H
  0000f	b9 0a 00 00 00	 mov	 ecx, 10
  00014	e8 00 00 00 00	 call	 ?randomInt@LifeExe@@YAHHH@Z ; LifeExe::randomInt
; Line 17
  00019	48 83 c4 20	 add	 rsp, 32			; 00000020H
  0001d	5f		 pop	 rdi
  0001e	c3		 ret	 0
?damage@Weapon@@QEBAHXZ ENDP				; Weapon::damage
_TEXT	ENDS
; Function compile flags: /Odtp /RTCsu
_TEXT	SEGMENT
this$ = 16
?fire@Weapon@@QEAA_NXZ PROC				; Weapon::fire
; File C:\Users\batma\Desktop\FIghtClub\Source\Game\Weapon.cpp
; Line 7
$LN4:
  00000	48 89 4c 24 08	 mov	 QWORD PTR [rsp+8], rcx
  00005	57		 push	 rdi
; Line 8
  00006	48 8b 44 24 10	 mov	 rax, QWORD PTR this$[rsp]
  0000b	83 38 00	 cmp	 DWORD PTR [rax], 0
  0000e	7f 04		 jg	 SHORT $LN2@fire
  00010	32 c0		 xor	 al, al
  00012	eb 12		 jmp	 SHORT $LN1@fire
$LN2@fire:
; Line 10
  00014	48 8b 44 24 10	 mov	 rax, QWORD PTR this$[rsp]
  00019	8b 00		 mov	 eax, DWORD PTR [rax]
  0001b	ff c8		 dec	 eax
  0001d	48 8b 4c 24 10	 mov	 rcx, QWORD PTR this$[rsp]
  00022	89 01		 mov	 DWORD PTR [rcx], eax
; Line 11
  00024	b0 01		 mov	 al, 1
$LN1@fire:
; Line 12
  00026	5f		 pop	 rdi
  00027	c3		 ret	 0
?fire@Weapon@@QEAA_NXZ ENDP				; Weapon::fire
_TEXT	ENDS
; Function compile flags: /Odtp /RTCsu
_TEXT	SEGMENT
this$ = 16
bullets$ = 24
??0Weapon@@QEAA@H@Z PROC				; Weapon::Weapon
; File C:\Users\batma\Desktop\FIghtClub\Source\Game\Weapon.cpp
; Line 4
$LN3:
  00000	89 54 24 10	 mov	 DWORD PTR [rsp+16], edx
  00004	48 89 4c 24 08	 mov	 QWORD PTR [rsp+8], rcx
  00009	57		 push	 rdi
  0000a	48 8b 44 24 10	 mov	 rax, QWORD PTR this$[rsp]
  0000f	8b 4c 24 18	 mov	 ecx, DWORD PTR bullets$[rsp]
  00013	89 08		 mov	 DWORD PTR [rax], ecx
  00015	48 8b 44 24 10	 mov	 rax, QWORD PTR this$[rsp]
  0001a	5f		 pop	 rdi
  0001b	c3		 ret	 0
??0Weapon@@QEAA@H@Z ENDP				; Weapon::Weapon
_TEXT	ENDS
END
